
Hoodloader.elf:     file format elf32-avr

Sections:
Idx Name          Size      VMA       LMA       File off  Algn
  0 .data         00000036  00800100  000028b8  0000294c  2**0
                  CONTENTS, ALLOC, LOAD, DATA
  1 .text         000028b8  00000000  00000000  00000094  2**1
                  CONTENTS, ALLOC, LOAD, READONLY, CODE
  2 .bss          000000c6  00800136  00800136  00002982  2**0
                  ALLOC
  3 .stab         00000d98  00000000  00000000  00002984  2**2
                  CONTENTS, READONLY, DEBUGGING
  4 .stabstr      0000091f  00000000  00000000  0000371c  2**0
                  CONTENTS, READONLY, DEBUGGING
  5 .comment      00000022  00000000  00000000  0000403b  2**0
                  CONTENTS, READONLY
  6 .debug_aranges 000008d0  00000000  00000000  0000405d  2**0
                  CONTENTS, READONLY, DEBUGGING
  7 .debug_info   0000e8b8  00000000  00000000  0000492d  2**0
                  CONTENTS, READONLY, DEBUGGING
  8 .debug_abbrev 00003b77  00000000  00000000  000131e5  2**0
                  CONTENTS, READONLY, DEBUGGING
  9 .debug_line   00005a05  00000000  00000000  00016d5c  2**0
                  CONTENTS, READONLY, DEBUGGING
 10 .debug_frame  000015fc  00000000  00000000  0001c764  2**2
                  CONTENTS, READONLY, DEBUGGING
 11 .debug_str    00004960  00000000  00000000  0001dd60  2**0
                  CONTENTS, READONLY, DEBUGGING
 12 .debug_loc    000089b9  00000000  00000000  000226c0  2**0
                  CONTENTS, READONLY, DEBUGGING
 13 .debug_ranges 00000ab8  00000000  00000000  0002b079  2**0
                  CONTENTS, READONLY, DEBUGGING

Disassembly of section .text:

00000000 <__vectors>:
			 *  \param[in] DataByte  Byte to transmit through the USART.
			 */
			static inline void Serial_SendByte(const char DataByte) ATTR_ALWAYS_INLINE;
			static inline void Serial_SendByte(const char DataByte)
			{
				while (!(UCSR1A & (1 << UDRE1)));
       0:	73 c1       	rjmp	.+742    	; 0x2e8 <__ctors_end>
       2:	00 00       	nop

int Serial_getchar(FILE *Stream)
{
	(void)Stream;

	if (!(Serial_IsCharReceived()))
       4:	8d c1       	rjmp	.+794    	; 0x320 <__bad_interrupt>
void Serial_CreateStream(FILE* Stream)
{
	if (!(Stream))
	{
		Stream = &USARTSerialStream;
		stdin  = Stream;
       6:	00 00       	nop
				UDR1 = DataByte;
       8:	8b c1       	rjmp	.+790    	; 0x320 <__bad_interrupt>
       a:	00 00       	nop
{
	(void)Stream;

	Serial_SendByte(DataByte);
	return 0;
}
       c:	89 c1       	rjmp	.+786    	; 0x320 <__bad_interrupt>
	uint8_t CurrByte;

	while ((CurrByte = pgm_read_byte(FlashStringPtr)) != 0x00)
	{
		Serial_SendByte(CurrByte);
		FlashStringPtr++;
       e:	00 00       	nop
			static inline int16_t Serial_ReceiveByte(void)
			{
				if (!(Serial_IsCharReceived()))
				  return -1;

				return UDR1;
      10:	87 c1       	rjmp	.+782    	; 0x320 <__bad_interrupt>
{
	if (!(Stream))
	{
		Stream = &USARTSerialStream;
		stdin  = Stream;
		stdout = Stream;
      12:	00 00       	nop
      14:	85 c1       	rjmp	.+778    	; 0x320 <__bad_interrupt>
	while ((CurrByte = *StringPtr) != 0x00)
	{
		Serial_SendByte(CurrByte);
		StringPtr++;
	}
}
      16:	00 00       	nop
int Serial_getchar(FILE *Stream)
{
	(void)Stream;

	if (!(Serial_IsCharReceived()))
	  return _FDEV_EOF;
      18:	83 c1       	rjmp	.+774    	; 0x320 <__bad_interrupt>

void Serial_CreateStream(FILE* Stream)
{
	if (!(Stream))
	{
		Stream = &USARTSerialStream;
      1a:	00 00       	nop
{
	(void)Stream;

	while (!(Serial_IsCharReceived()));
	return Serial_ReceiveByte();
}
      1c:	81 c1       	rjmp	.+770    	; 0x320 <__bad_interrupt>
			 */
			static inline int16_t Serial_ReceiveByte(void) ATTR_ALWAYS_INLINE;
			static inline int16_t Serial_ReceiveByte(void)
			{
				if (!(Serial_IsCharReceived()))
				  return -1;
      1e:	00 00       	nop
	uint16_t CurrentBit   = ReportItem->BitOffset;
	uint32_t BitMask      = (1 << 0);

	if (ReportItem->ReportID)
	{
		if (ReportItem->ReportID != ReportData[0])
      20:	7f c1       	rjmp	.+766    	; 0x320 <__bad_interrupt>
      22:	00 00       	nop
      24:	7d c1       	rjmp	.+762    	; 0x320 <__bad_interrupt>
{
	for (uint8_t i = 0; i < HID_MAX_REPORT_IDS; i++)
	{
		uint16_t ReportSizeBits = ParserData->ReportIDSizes[i].ReportSizeBits[ReportType];

		if (ParserData->ReportIDSizes[i].ReportID == ReportID)
      26:	00 00       	nop
	if (ReportItem->ReportID)
	{
		if (ReportItem->ReportID != ReportData[0])
		  return false;

		ReportData++;
      28:	7b c1       	rjmp	.+758    	; 0x320 <__bad_interrupt>
	}

	ReportItem->PreviousValue = ReportItem->Value;
      2a:	00 00       	nop
	for (uint8_t i = 0; i < HID_MAX_REPORT_IDS; i++)
	{
		uint16_t ReportSizeBits = ParserData->ReportIDSizes[i].ReportSizeBits[ReportType];

		if (ParserData->ReportIDSizes[i].ReportID == ReportID)
		  return (ReportSizeBits / 8) + ((ReportSizeBits % 8) ? 1 : 0);
      2c:	0c 94 2f 0e 	jmp	0x1c5e	; 0x1c5e <__vector_11>

	uint16_t DataBitsRem  = ReportItem->Attributes.BitSize;
	uint16_t CurrentBit   = ReportItem->BitOffset;
	uint32_t BitMask      = (1 << 0);

	if (ReportItem->ReportID)
      30:	0c 94 db 0e 	jmp	0x1db6	; 0x1db6 <__vector_12>
      34:	75 c1       	rjmp	.+746    	; 0x320 <__bad_interrupt>
      36:	00 00       	nop
      38:	73 c1       	rjmp	.+742    	; 0x320 <__bad_interrupt>

		ReportData++;
	}

	ReportItem->PreviousValue = ReportItem->Value;
	ReportItem->Value = 0;
      3a:	00 00       	nop
      3c:	71 c1       	rjmp	.+738    	; 0x320 <__bad_interrupt>
      3e:	00 00       	nop
	{
		ReportData[0] = ReportItem->ReportID;
		ReportData++;
	}

	ReportItem->PreviousValue = ReportItem->Value;
      40:	6f c1       	rjmp	.+734    	; 0x320 <__bad_interrupt>
                             HID_ReportInfo_t* const ParserData)
{
	HID_StateTable_t      StateTable[HID_STATETABLE_STACK_DEPTH];
	HID_StateTable_t*     CurrStateTable     = &StateTable[0];
	HID_CollectionPath_t* CurrCollectionPath = NULL;
	HID_ReportSizeInfo_t* CurrReportIDInfo   = &ParserData->ReportIDSizes[0];
      42:	00 00       	nop
      44:	6d c1       	rjmp	.+730    	; 0x320 <__bad_interrupt>
	if (ReportItem == NULL)
	  return false;

	uint16_t DataBitsRem  = ReportItem->Attributes.BitSize;
	uint16_t CurrentBit   = ReportItem->BitOffset;
	uint32_t BitMask      = (1 << 0);
      46:	00 00       	nop
      48:	6b c1       	rjmp	.+726    	; 0x320 <__bad_interrupt>
      4a:	00 00       	nop
      4c:	69 c1       	rjmp	.+722    	; 0x320 <__bad_interrupt>
	  return HID_PARSE_NoUnfilteredReportItems;

	return HID_PARSE_Successful;
}

bool USB_GetHIDReportItemInfo(const uint8_t* ReportData,
      4e:	00 00       	nop
	HID_ReportSizeInfo_t* CurrReportIDInfo   = &ParserData->ReportIDSizes[0];
	uint16_t              UsageList[HID_USAGE_STACK_DEPTH];
	uint8_t               UsageListSize      = 0;
	HID_MinMax_t          UsageMinMax        = {0, 0};

	memset(ParserData,       0x00, sizeof(HID_ReportInfo_t));
      50:	67 c1       	rjmp	.+718    	; 0x320 <__bad_interrupt>
      52:	00 00       	nop
	}

	ReportItem->PreviousValue = ReportItem->Value;
	ReportItem->Value = 0;

	while (DataBitsRem--)
      54:	65 c1       	rjmp	.+714    	; 0x320 <__bad_interrupt>
	{
		if (ReportData[CurrentBit / 8] & (1 << (CurrentBit % 8)))
      56:	00 00       	nop
{
	if (ReportItem == NULL)
	  return;

	uint16_t DataBitsRem  = ReportItem->Attributes.BitSize;
	uint16_t CurrentBit   = ReportItem->BitOffset;
      58:	63 c1       	rjmp	.+710    	; 0x320 <__bad_interrupt>
		if (ParserData->ReportIDSizes[i].ReportID == ReportID)
		  return (ReportSizeBits / 8) + ((ReportSizeBits % 8) ? 1 : 0);
	}

	return 0;
}
      5a:	00 00       	nop
	if (ReportItem == NULL)
	  return;

	uint16_t DataBitsRem  = ReportItem->Attributes.BitSize;
	uint16_t CurrentBit   = ReportItem->BitOffset;
	uint32_t BitMask      = (1 << 0);
      5c:	4a c3       	rjmp	.+1684   	; 0x6f2 <__vector_23>
	uint16_t              UsageList[HID_USAGE_STACK_DEPTH];
	uint8_t               UsageListSize      = 0;
	HID_MinMax_t          UsageMinMax        = {0, 0};

	memset(ParserData,       0x00, sizeof(HID_ReportInfo_t));
	memset(CurrStateTable,   0x00, sizeof(HID_StateTable_t));
      5e:	00 00       	nop
      60:	5f c1       	rjmp	.+702    	; 0x320 <__bad_interrupt>
      62:	00 00       	nop
	}

	return true;
}

void USB_SetHIDReportItemInfo(uint8_t* ReportData,
      64:	5d c1       	rjmp	.+698    	; 0x320 <__bad_interrupt>
      66:	00 00       	nop
      68:	5b c1       	rjmp	.+694    	; 0x320 <__bad_interrupt>

	ReportItem->PreviousValue = ReportItem->Value;

	while (DataBitsRem--)
	{
		if (ReportItem->Value & (1 << (CurrentBit % 8)))
      6a:	00 00       	nop
	uint8_t               UsageListSize      = 0;
	HID_MinMax_t          UsageMinMax        = {0, 0};

	memset(ParserData,       0x00, sizeof(HID_ReportInfo_t));
	memset(CurrStateTable,   0x00, sizeof(HID_StateTable_t));
	memset(CurrReportIDInfo, 0x00, sizeof(HID_ReportSizeInfo_t));
      6c:	59 c1       	rjmp	.+690    	; 0x320 <__bad_interrupt>
      6e:	00 00       	nop
		ReportData++;
	}

	ReportItem->PreviousValue = ReportItem->Value;

	while (DataBitsRem--)
      70:	57 c1       	rjmp	.+686    	; 0x320 <__bad_interrupt>
	{
		if (ReportItem->Value & (1 << (CurrentBit % 8)))
      72:	00 00       	nop

00000074 <ProductString>:
      74:	30 03 41 00 72 00 64 00 75 00 69 00 6e 00 6f 00     0.A.r.d.u.i.n.o.
	HID_StateTable_t*     CurrStateTable     = &StateTable[0];
	HID_CollectionPath_t* CurrCollectionPath = NULL;
	HID_ReportSizeInfo_t* CurrReportIDInfo   = &ParserData->ReportIDSizes[0];
	uint16_t              UsageList[HID_USAGE_STACK_DEPTH];
	uint8_t               UsageListSize      = 0;
	HID_MinMax_t          UsageMinMax        = {0, 0};
      84:	20 00 48 00 6f 00 6f 00 64 00 6c 00 6f 00 61 00      .H.o.o.d.l.o.a.
	HID_StateTable_t      StateTable[HID_STATETABLE_STACK_DEPTH];
	HID_StateTable_t*     CurrStateTable     = &StateTable[0];
	HID_CollectionPath_t* CurrCollectionPath = NULL;
	HID_ReportSizeInfo_t* CurrReportIDInfo   = &ParserData->ReportIDSizes[0];
	uint16_t              UsageList[HID_USAGE_STACK_DEPTH];
	uint8_t               UsageListSize      = 0;
      94:	64 00 65 00 72 00 20 00 42 00 65 00 74 00 61 00     d.e.r. .B.e.t.a.
	}

	ReportItem->PreviousValue = ReportItem->Value;
	ReportItem->Value = 0;

	while (DataBitsRem--)
      a4:	00 00                                               ..

000000a6 <ManufacturerString>:
      a6:	12 03 4e 00 69 00 63 00 6f 00 48 00 6f 00 6f 00     ..N.i.c.o.H.o.o.
				}
				else
				{
					HID_CollectionPath_t* ParentCollectionPath = CurrCollectionPath;

					CurrCollectionPath = &ParserData->CollectionPaths[1];
      b6:	64 00 00 00                                         d...

000000ba <LanguageString>:
      ba:	04 03 09 04                                         ....

000000be <ConfigurationDescriptor>:
	while (Length || LastPacketFull)
	{
		uint8_t USB_DeviceState_LCL = USB_DeviceState;

		if (USB_DeviceState_LCL == DEVICE_STATE_Unattached)
		  return ENDPOINT_RWCSTREAM_DeviceDisconnected;
      be:	09 02 5f 00 03 01 00 c0 32 08 0b 00 02 02 02 01     .._.....2.......
		else if (USB_DeviceState_LCL == DEVICE_STATE_Suspended)
		  return ENDPOINT_RWCSTREAM_BusSuspended;
	}

	return ENDPOINT_RWCSTREAM_NoError;
}
      ce:	00 09 04 00 00 01 02 02 01 00 05 24 00 10 01 04     ...........$....
			 *  \return Boolean \c true if current endpoint is has received an OUT packet, \c false otherwise.
			 */
			static inline bool Endpoint_IsOUTReceived(void) ATTR_WARN_UNUSED_RESULT ATTR_ALWAYS_INLINE;
			static inline bool Endpoint_IsOUTReceived(void)
			{
				return ((UEINTX & (1 << RXOUTI)) ? true : false);
      de:	24 02 06 05 24 06 00 01 07 05 82 03 08 00 ff 09     $...$...........
	while (Length || LastPacketFull)
	{
		uint8_t USB_DeviceState_LCL = USB_DeviceState;

		if (USB_DeviceState_LCL == DEVICE_STATE_Unattached)
		  return ENDPOINT_RWCSTREAM_DeviceDisconnected;
      ee:	04 01 00 02 0a 00 00 00 07 05 04 02 40 00 01 07     ............@...
		else if (USB_DeviceState_LCL == DEVICE_STATE_Suspended)
		  return ENDPOINT_RWCSTREAM_BusSuspended;
	}

	return ENDPOINT_RWCSTREAM_NoError;
}
      fe:	05 83 02 40 00 01 09 04 02 00 01 03 00 00 00 09     ...@............
				ReportSize     -= 1;
				ReportData     += 1;
				break;

			default:
				ReportItemData  = 0;
     10e:	21 11 01 00 01 22 b8 01 07 05 81 03 10 00 01        !....".........

0000011d <DeviceDescriptor>:
		ReportSize--;

		switch (HIDReportItem & HID_RI_DATA_SIZE_MASK)
		{
			case HID_RI_DATA_BITS_32:
				ReportItemData  = (((uint32_t)ReportData[3] << 24) | ((uint32_t)ReportData[2] << 16) |
     11d:	12 01 10 01 ef 02 01 08 eb 03 68 6e 80 01 01 02     ..........hn....
     12d:	dc 01                                               ..

0000012f <HIDReport>:
     12f:	05 01 09 02 a1 01 09 01 a1 00 85 01 05 09 19 01     ................
			                       ((uint16_t)ReportData[1] << 8)  | ReportData[0]);
     13f:	29 05 15 00 25 01 95 05 75 01 81 02 95 01 75 03     )...%...u.....u.
		ReportSize--;

		switch (HIDReportItem & HID_RI_DATA_SIZE_MASK)
		{
			case HID_RI_DATA_BITS_32:
				ReportItemData  = (((uint32_t)ReportData[3] << 24) | ((uint32_t)ReportData[2] << 16) |
     14f:	81 03 05 01 09 30 09 31 09 38 15 81 25 7f 75 08     .....0.1.8..%.u.
     15f:	95 03 81 06 c0 c0 05 01 09 06 a1 01 85 02 05 07     ................
			                       ((uint16_t)ReportData[1] << 8)  | ReportData[0]);
				ReportSize     -= 4;
     16f:	19 e0 29 e7 15 00 25 01 75 01 95 08 81 02 95 01     ..)...%.u.......
				ReportData     += 4;
				break;

			case HID_RI_DATA_BITS_16:
				ReportItemData  = (((uint16_t)ReportData[1] << 8) | (ReportData[0]));
     17f:	75 08 81 03 95 06 75 08 15 00 25 65 05 07 19 00     u.....u...%e....
     18f:	29 65 81 00 05 08 19 01 29 05 95 05 75 01 91 02     )e......)...u...
     19f:	95 01 75 03 91 03 c0 06 c0 ff 0a 00 0c a1 01 85     ..u.............
				ReportSize     -= 2;
     1af:	03 75 08 15 00 26 ff 00 95 0f 09 01 81 02 95 0f     .u...&..........
     1bf:	09 02 91 02 c0 05 0c 09 01 a1 01 85 04 15 00 26     ...............&
				ReportData     += 2;
				break;

			case HID_RI_DATA_BITS_8:
				ReportItemData  = ReportData[0];
     1cf:	ff 03 19 00 2a ff 03 95 04 75 10 81 00 c0 05 01     ....*....u......
				ReportSize     -= 1;
     1df:	09 80 a1 01 85 05 15 00 26 ff 00 19 00 29 ff 95     ........&....)..
			default:
				ReportItemData  = 0;
				break;
		}

		switch (HIDReportItem & (HID_RI_TYPE_MASK | HID_RI_TAG_MASK))
     1ef:	01 75 08 81 00 c0 05 01 09 04 a1 01 85 06 05 09     .u..............
     1ff:	19 01 29 20 15 00 25 01 75 01 95 20 81 02 05 01     ..) ..%.u.. ....
     20f:	a1 00 09 30 09 31 09 32 09 33 09 34 09 35 15 00     ...0.1.2.3.4.5..
     21f:	27 ff ff 00 00 75 10 95 06 81 02 c0 05 01 09 39     '....u.........9
     22f:	09 39 15 01 25 08 95 02 75 04 81 02 c0 05 01 09     .9..%...u.......
     23f:	04 a1 01 85 07 05 09 19 01 29 20 15 00 25 01 75     .........) ..%.u
     24f:	01 95 20 81 02 05 01 a1 00 09 30 09 31 09 32 09     .. .......0.1.2.
     25f:	33 09 34 09 35 15 00 27 ff ff 00 00 75 10 95 06     3.4.5..'....u...
     26f:	81 02 c0 09 39 09 39 15 01 25 08 95 02 75 04 81     ....9.9..%...u..
     27f:	02 c0 05 01 09 04 a1 01 85 08 a1 00 05 09 19 01     ................
		{
			case HID_RI_PUSH(0):
				if (CurrStateTable == &StateTable[HID_STATETABLE_STACK_DEPTH - 1])
     28f:	29 02 15 00 25 01 75 01 95 02 81 02 05 01 09 30     )...%.u........0
				  return HID_PARSE_HIDStackOverflow;

				memcpy((CurrStateTable + 1),
     29f:	09 31 15 00 26 ff 03 75 0a 95 02 81 02 75 02 95     .1..&..u.....u..

				CurrStateTable++;
				break;

			case HID_RI_POP(0):
				if (CurrStateTable == &StateTable[0])
     2af:	01 81 03 c0 c0 05 01 09 04 a1 01 85 09 a1 00 05     ................

			case HID_RI_USAGE_PAGE(0):
				if ((HIDReportItem & HID_RI_DATA_SIZE_MASK) == HID_RI_DATA_BITS_32)
				  CurrStateTable->Attributes.Usage.Page = (ReportItemData >> 16);

				CurrStateTable->Attributes.Usage.Page       = ReportItemData;
     2bf:	09 19 01 29 02 15 00 25 01 75 01 95 02 81 02 05     ...)...%.u......
				break;

			case HID_RI_LOGICAL_MINIMUM(0):
				CurrStateTable->Attributes.Logical.Minimum  = ReportItemData;
     2cf:	01 09 30 09 31 15 00 26 ff 03 75 0a 95 02 81 02     ..0.1..&..u.....
				break;

			case HID_RI_LOGICAL_MAXIMUM(0):
				CurrStateTable->Attributes.Logical.Maximum  = ReportItemData;
     2df:	75 02 95 01 81 03 c0 c0 00                          u........

000002e8 <__ctors_end>:
				break;

			case HID_RI_PHYSICAL_MINIMUM(0):
				CurrStateTable->Attributes.Physical.Minimum = ReportItemData;
     2e8:	11 24       	eor	r1, r1
     2ea:	1f be       	out	0x3f, r1	; 63
     2ec:	cf ef       	ldi	r28, 0xFF	; 255
     2ee:	d2 e0       	ldi	r29, 0x02	; 2
				break;
     2f0:	de bf       	out	0x3e, r29	; 62

			case HID_RI_PHYSICAL_MAXIMUM(0):
				CurrStateTable->Attributes.Physical.Maximum = ReportItemData;
     2f2:	cd bf       	out	0x3d, r28	; 61

000002f4 <__do_copy_data>:
     2f4:	11 e0       	ldi	r17, 0x01	; 1
     2f6:	a0 e0       	ldi	r26, 0x00	; 0
     2f8:	b1 e0       	ldi	r27, 0x01	; 1
     2fa:	e8 eb       	ldi	r30, 0xB8	; 184
     2fc:	f8 e2       	ldi	r31, 0x28	; 40
     2fe:	02 c0       	rjmp	.+4      	; 0x304 <__stack+0x5>
				break;
     300:	05 90       	lpm	r0, Z+

			case HID_RI_UNIT_EXPONENT(0):
				CurrStateTable->Attributes.Unit.Exponent    = ReportItemData;
     302:	0d 92       	st	X+, r0
     304:	a6 33       	cpi	r26, 0x36	; 54
				break;
     306:	b1 07       	cpc	r27, r17

			case HID_RI_UNIT(0):
				CurrStateTable->Attributes.Unit.Type        = ReportItemData;
     308:	d9 f7       	brne	.-10     	; 0x300 <__stack+0x1>

0000030a <__do_clear_bss>:
     30a:	11 e0       	ldi	r17, 0x01	; 1
     30c:	a6 e3       	ldi	r26, 0x36	; 54
     30e:	b1 e0       	ldi	r27, 0x01	; 1
     310:	01 c0       	rjmp	.+2      	; 0x314 <.do_clear_bss_start>

00000312 <.do_clear_bss_loop>:
     312:	1d 92       	st	X+, r1

00000314 <.do_clear_bss_start>:
     314:	ac 3f       	cpi	r26, 0xFC	; 252
				break;
     316:	b1 07       	cpc	r27, r17

			case HID_RI_REPORT_SIZE(0):
				CurrStateTable->Attributes.BitSize          = ReportItemData;
     318:	e1 f7       	brne	.-8      	; 0x312 <.do_clear_bss_loop>
     31a:	6c d0       	rcall	.+216    	; 0x3f4 <main>
				break;
     31c:	0c 94 5a 14 	jmp	0x28b4	; 0x28b4 <_exit>

00000320 <__bad_interrupt>:

			case HID_RI_REPORT_COUNT(0):
				CurrStateTable->ReportCount                 = ReportItemData;
     320:	6f ce       	rjmp	.-802    	; 0x0 <__vectors>

00000322 <LRingBuffer_Remove.constprop.2>:
     322:	e6 e3       	ldi	r30, 0x36	; 54
				break;
     324:	f1 e0       	ldi	r31, 0x01	; 1

			case HID_RI_REPORT_ID(0):
				CurrStateTable->ReportID                    = ReportItemData;
     326:	5f b7       	in	r21, 0x3f	; 63
     328:	f8 94       	cli
     32a:	20 81       	ld	r18, Z

				if (ParserData->UsingReportIDs)
     32c:	31 81       	ldd	r19, Z+1	; 0x01
     32e:	21 15       	cp	r18, r1
     330:	31 05       	cpc	r19, r1
     332:	19 f0       	breq	.+6      	; 0x33a <LRingBuffer_Remove.constprop.2+0x18>
     334:	44 81       	ldd	r20, Z+4	; 0x04
     336:	41 11       	cpse	r20, r1
				{
					CurrReportIDInfo = NULL;

					for (uint8_t i = 0; i < ParserData->TotalDeviceReports; i++)
     338:	04 c0       	rjmp	.+8      	; 0x342 <LRingBuffer_Remove.constprop.2+0x20>
     33a:	5f bf       	out	0x3f, r21	; 63
     33c:	2f ef       	ldi	r18, 0xFF	; 255
     33e:	3f ef       	ldi	r19, 0xFF	; 255
     340:	11 c0       	rjmp	.+34     	; 0x364 <LRingBuffer_Remove.constprop.2+0x42>
     342:	82 81       	ldd	r24, Z+2	; 0x02
     344:	90 e0       	ldi	r25, 0x00	; 0
     346:	84 1b       	sub	r24, r20
					{
						if (ParserData->ReportIDSizes[i].ReportID == CurrStateTable->ReportID)
     348:	91 09       	sbc	r25, r1

#define  __INCLUDE_FROM_USB_DRIVER
#define  __INCLUDE_FROM_HID_DRIVER
#include "HIDParser.h"

uint8_t USB_ProcessHIDReport(const uint8_t* ReportData,
     34a:	97 ff       	sbrs	r25, 7
     34c:	03 c0       	rjmp	.+6      	; 0x354 <LRingBuffer_Remove.constprop.2+0x32>
     34e:	63 81       	ldd	r22, Z+3	; 0x03
				{
					CurrReportIDInfo = NULL;

					for (uint8_t i = 0; i < ParserData->TotalDeviceReports; i++)
					{
						if (ParserData->ReportIDSizes[i].ReportID == CurrStateTable->ReportID)
     350:	86 0f       	add	r24, r22
     352:	91 1d       	adc	r25, r1
     354:	d9 01       	movw	r26, r18
     356:	a8 0f       	add	r26, r24
     358:	b9 1f       	adc	r27, r25
     35a:	2c 91       	ld	r18, X
     35c:	41 50       	subi	r20, 0x01	; 1
						{
							CurrReportIDInfo = &ParserData->ReportIDSizes[i];
     35e:	44 83       	std	Z+4, r20	; 0x04
     360:	5f bf       	out	0x3f, r21	; 63
     362:	30 e0       	ldi	r19, 0x00	; 0
     364:	c9 01       	movw	r24, r18
     366:	08 95       	ret

00000368 <LRingBuffer_Append.constprop.4>:
     368:	e6 e3       	ldi	r30, 0x36	; 54
     36a:	f1 e0       	ldi	r31, 0x01	; 1
     36c:	4f b7       	in	r20, 0x3f	; 63
     36e:	f8 94       	cli
     370:	20 81       	ld	r18, Z
     372:	31 81       	ldd	r19, Z+1	; 0x01
     374:	21 15       	cp	r18, r1
     376:	31 05       	cpc	r19, r1

				if (ParserData->UsingReportIDs)
				{
					CurrReportIDInfo = NULL;

					for (uint8_t i = 0; i < ParserData->TotalDeviceReports; i++)
     378:	09 f4       	brne	.+2      	; 0x37c <LRingBuffer_Append.constprop.4+0x14>
     37a:	1d c0       	rjmp	.+58     	; 0x3b6 <LRingBuffer_Append.constprop.4+0x4e>
     37c:	82 81       	ldd	r24, Z+2	; 0x02
					if (CurrReportIDInfo == NULL)
					{
						if (ParserData->TotalDeviceReports == HID_MAX_REPORT_IDS)
						  return HID_PARSE_InsufficientReportIDItems;

						CurrReportIDInfo = &ParserData->ReportIDSizes[ParserData->TotalDeviceReports++];
     37e:	90 e0       	ldi	r25, 0x00	; 0
     380:	54 81       	ldd	r21, Z+4	; 0x04
     382:	85 1b       	sub	r24, r21
     384:	91 09       	sbc	r25, r1
     386:	01 97       	sbiw	r24, 0x01	; 1
     388:	97 ff       	sbrs	r25, 7
     38a:	03 c0       	rjmp	.+6      	; 0x392 <LRingBuffer_Append.constprop.4+0x2a>
     38c:	53 81       	ldd	r21, Z+3	; 0x03
     38e:	85 0f       	add	r24, r21
     390:	91 1d       	adc	r25, r1
     392:	d9 01       	movw	r26, r18
     394:	a8 0f       	add	r26, r24
     396:	b9 1f       	adc	r27, r25
     398:	6c 93       	st	X, r22
     39a:	84 81       	ldd	r24, Z+4	; 0x04
     39c:	93 81       	ldd	r25, Z+3	; 0x03
     39e:	89 13       	cpse	r24, r25
     3a0:	08 c0       	rjmp	.+16     	; 0x3b2 <LRingBuffer_Append.constprop.4+0x4a>
     3a2:	92 81       	ldd	r25, Z+2	; 0x02
						memset(CurrReportIDInfo, 0x00, sizeof(HID_ReportSizeInfo_t));
     3a4:	91 11       	cpse	r25, r1
     3a6:	01 c0       	rjmp	.+2      	; 0x3aa <LRingBuffer_Append.constprop.4+0x42>
     3a8:	82 83       	std	Z+2, r24	; 0x02
     3aa:	82 81       	ldd	r24, Z+2	; 0x02
     3ac:	81 50       	subi	r24, 0x01	; 1
     3ae:	82 83       	std	Z+2, r24	; 0x02
     3b0:	02 c0       	rjmp	.+4      	; 0x3b6 <LRingBuffer_Append.constprop.4+0x4e>
     3b2:	8f 5f       	subi	r24, 0xFF	; 255
					}
				}

				ParserData->UsingReportIDs = true;
     3b4:	84 83       	std	Z+4, r24	; 0x04
     3b6:	4f bf       	out	0x3f, r20	; 63
     3b8:	08 95       	ret

000003ba <SetupHardware>:
     3ba:	84 b7       	in	r24, 0x34	; 52
     3bc:	87 7f       	andi	r24, 0xF7	; 247

				CurrReportIDInfo->ReportID = CurrStateTable->ReportID;
     3be:	84 bf       	out	0x34, r24	; 52
     3c0:	88 e1       	ldi	r24, 0x18	; 24
     3c2:	0f b6       	in	r0, 0x3f	; 63
     3c4:	f8 94       	cli
     3c6:	80 93 60 00 	sts	0x0060, r24
     3ca:	10 92 60 00 	sts	0x0060, r1
				break;

			case HID_RI_USAGE(0):
				if (UsageListSize == HID_USAGE_STACK_DEPTH)
     3ce:	0f be       	out	0x3f, r0	; 63
     3d0:	0e 94 31 0b 	call	0x1662	; 0x1662 <SerialInitHID>
     3d4:	8a b1       	in	r24, 0x0a	; 10
     3d6:	80 63       	ori	r24, 0x30	; 48
     3d8:	8a b9       	out	0x0a, r24	; 10
				  return HID_PARSE_UsageListOverflow;

				UsageList[UsageListSize++] = ReportItemData;
     3da:	8b b1       	in	r24, 0x0b	; 11
     3dc:	80 63       	ori	r24, 0x30	; 48
     3de:	8b b9       	out	0x0b, r24	; 11
     3e0:	0e 94 20 0e 	call	0x1c40	; 0x1c40 <USB_Init>
     3e4:	84 e0       	ldi	r24, 0x04	; 4
     3e6:	85 bd       	out	0x25, r24	; 37
     3e8:	5f 9a       	sbi	0x0b, 7	; 11
     3ea:	57 9a       	sbi	0x0a, 7	; 10
     3ec:	20 98       	cbi	0x04, 0	; 4
     3ee:	25 98       	cbi	0x04, 5	; 4
     3f0:	2d 9a       	sbi	0x05, 5	; 5
     3f2:	08 95       	ret

000003f4 <main>:
     3f4:	e6 e3       	ldi	r30, 0x36	; 54
     3f6:	f1 e0       	ldi	r31, 0x01	; 1
     3f8:	2f b7       	in	r18, 0x3f	; 63
				break;
     3fa:	f8 94       	cli
				UsageMinMax.Minimum = ReportItemData;
				break;

			case HID_RI_USAGE_MAXIMUM(0):
				UsageMinMax.Maximum = ReportItemData;
				break;
     3fc:	8b e3       	ldi	r24, 0x3B	; 59
     3fe:	91 e0       	ldi	r25, 0x01	; 1
     400:	91 83       	std	Z+1, r25	; 0x01
     402:	80 83       	st	Z, r24
     404:	12 82       	std	Z+2, r1	; 0x02
     406:	80 e8       	ldi	r24, 0x80	; 128
     408:	83 83       	std	Z+3, r24	; 0x03

			case HID_RI_COLLECTION(0):
				if (CurrCollectionPath == NULL)
     40a:	14 82       	std	Z+4, r1	; 0x04
     40c:	2f bf       	out	0x3f, r18	; 63
     40e:	10 92 bb 01 	sts	0x01BB, r1
				{
					CurrCollectionPath = &ParserData->CollectionPaths[0];
     412:	84 ee       	ldi	r24, 0xE4	; 228
     414:	91 e0       	ldi	r25, 0x01	; 1
     416:	0e 94 0e 0a 	call	0x141c	; 0x141c <NHPreset>
     41a:	10 92 c5 01 	sts	0x01C5, r1
				}
				else
				{
					HID_CollectionPath_t* ParentCollectionPath = CurrCollectionPath;

					CurrCollectionPath = &ParserData->CollectionPaths[1];
     41e:	ae d3       	rcall	.+1884   	; 0xb7c <HIDreset>
     420:	e3 d3       	rcall	.+1990   	; 0xbe8 <avrispReset>
     422:	cb df       	rcall	.-106    	; 0x3ba <SetupHardware>
     424:	78 94       	sei
     426:	80 91 be 01 	lds	r24, 0x01BE

					while (CurrCollectionPath->Parent != NULL)
					{
						if (CurrCollectionPath == &ParserData->CollectionPaths[HID_MAX_COLLECTIONS - 1])
     42a:	81 11       	cpse	r24, r1
     42c:	06 c0       	rjmp	.+12     	; 0x43a <main+0x46>
     42e:	83 b1       	in	r24, 0x03	; 3
     430:	80 72       	andi	r24, 0x20	; 32
     432:	83 b9       	out	0x03, r24	; 3
     434:	81 11       	cpse	r24, r1
     436:	01 c0       	rjmp	.+2      	; 0x43a <main+0x46>
     438:	dc d2       	rcall	.+1464   	; 0x9f2 <clearHIDReports>
     43a:	80 e1       	ldi	r24, 0x10	; 16
     43c:	91 e0       	ldi	r25, 0x01	; 1
						  return HID_PARSE_InsufficientCollectionPaths;

						CurrCollectionPath++;
     43e:	0e 94 2c 11 	call	0x2258	; 0x2258 <CDC_Device_ReceiveByte>
				{
					HID_CollectionPath_t* ParentCollectionPath = CurrCollectionPath;

					CurrCollectionPath = &ParserData->CollectionPaths[1];

					while (CurrCollectionPath->Parent != NULL)
     442:	97 fd       	sbrc	r25, 7
     444:	1b c0       	rjmp	.+54     	; 0x47c <main+0x88>
     446:	40 91 24 01 	lds	r20, 0x0124
						  return HID_PARSE_InsufficientCollectionPaths;

						CurrCollectionPath++;
					}

					CurrCollectionPath->Parent = ParentCollectionPath;
     44a:	50 91 25 01 	lds	r21, 0x0125
				}

				CurrCollectionPath->Type       = ReportItemData;
     44e:	60 91 26 01 	lds	r22, 0x0126
				CurrCollectionPath->Usage.Page = CurrStateTable->Attributes.Usage.Page;
     452:	70 91 27 01 	lds	r23, 0x0127
     456:	41 30       	cpi	r20, 0x01	; 1
     458:	51 05       	cpc	r21, r1
     45a:	61 05       	cpc	r22, r1
     45c:	71 05       	cpc	r23, r1
     45e:	11 f4       	brne	.+4      	; 0x464 <main+0x70>

				if (UsageListSize)
     460:	18 d7       	rcall	.+3632   	; 0x1292 <avrisp>
     462:	0c c0       	rjmp	.+24     	; 0x47c <main+0x88>
     464:	5c 98       	cbi	0x0b, 4	; 11
     466:	90 91 c5 01 	lds	r25, 0x01C5
				{
					CurrCollectionPath->Usage.Usage = UsageList[0];
     46a:	9c 60       	ori	r25, 0x0C	; 12
     46c:	90 93 c5 01 	sts	0x01C5, r25
     470:	90 91 c8 00 	lds	r25, 0x00C8
     474:	95 ff       	sbrs	r25, 5
     476:	fc cf       	rjmp	.-8      	; 0x470 <main+0x7c>
     478:	80 93 ce 00 	sts	0x00CE, r24
     47c:	80 91 be 01 	lds	r24, 0x01BE

					for (uint8_t i = 1; i < UsageListSize; i++)
     480:	88 23       	and	r24, r24
     482:	19 f0       	breq	.+6      	; 0x48a <main+0x96>
					  UsageList[i - 1] = UsageList[i];
     484:	a8 99       	sbic	0x15, 0	; 21
     486:	99 c0       	rjmp	.+306    	; 0x5ba <main+0x1c6>
     488:	1d c1       	rjmp	.+570    	; 0x6c4 <main+0x2d0>
     48a:	2f b7       	in	r18, 0x3f	; 63

				if (UsageListSize)
				{
					CurrCollectionPath->Usage.Usage = UsageList[0];

					for (uint8_t i = 1; i < UsageListSize; i++)
     48c:	f8 94       	cli
     48e:	80 91 36 01 	lds	r24, 0x0136
     492:	90 91 37 01 	lds	r25, 0x0137
     496:	89 2b       	or	r24, r25
					  UsageList[i - 1] = UsageList[i];

					UsageListSize--;
     498:	19 f0       	breq	.+6      	; 0x4a0 <main+0xac>
     49a:	80 91 3a 01 	lds	r24, 0x013A
     49e:	01 c0       	rjmp	.+2      	; 0x4a2 <main+0xae>
     4a0:	80 e0       	ldi	r24, 0x00	; 0
				}
				else if (UsageMinMax.Minimum <= UsageMinMax.Maximum)
     4a2:	2f bf       	out	0x3f, r18	; 63
     4a4:	90 e0       	ldi	r25, 0x00	; 0
     4a6:	00 97       	sbiw	r24, 0x00	; 0
     4a8:	69 f3       	breq	.-38     	; 0x484 <main+0x90>
     4aa:	5d 98       	cbi	0x0b, 5	; 11
     4ac:	20 91 c5 01 	lds	r18, 0x01C5
     4b0:	23 60       	ori	r18, 0x03	; 3
     4b2:	20 93 c5 01 	sts	0x01C5, r18
     4b6:	20 91 11 01 	lds	r18, 0x0111
				{
					CurrCollectionPath->Usage.Usage = UsageMinMax.Minimum++;
     4ba:	2f 70       	andi	r18, 0x0F	; 15
     4bc:	20 93 e9 00 	sts	0x00E9, r18
     4c0:	20 91 e8 00 	lds	r18, 0x00E8
     4c4:	20 ff       	sbrs	r18, 0
     4c6:	de cf       	rjmp	.-68     	; 0x484 <main+0x90>
     4c8:	80 34       	cpi	r24, 0x40	; 64
     4ca:	91 05       	cpc	r25, r1
     4cc:	10 f0       	brcs	.+4      	; 0x4d2 <main+0xde>
     4ce:	8f e3       	ldi	r24, 0x3F	; 63
				}

				break;

			case HID_RI_END_COLLECTION(0):
				if (CurrCollectionPath == NULL)
     4d0:	90 e0       	ldi	r25, 0x00	; 0
     4d2:	18 2f       	mov	r17, r24
     4d4:	c0 e0       	ldi	r28, 0x00	; 0
     4d6:	d0 e0       	ldi	r29, 0x00	; 0
				  return HID_PARSE_UnexpectedEndCollection;

				CurrCollectionPath = CurrCollectionPath->Parent;
     4d8:	6d c0       	rjmp	.+218    	; 0x5b4 <main+0x1c0>
     4da:	80 91 24 01 	lds	r24, 0x0124
				break;
     4de:	90 91 25 01 	lds	r25, 0x0125
			case HID_RI_FEATURE(0):
				for (uint8_t ReportItemNum = 0; ReportItemNum < CurrStateTable->ReportCount; ReportItemNum++)
				{
					HID_ReportItem_t NewReportItem;

					memcpy(&NewReportItem.Attributes,
     4e2:	a0 91 26 01 	lds	r26, 0x0126
     4e6:	b0 91 27 01 	lds	r27, 0x0127
     4ea:	20 91 bb 01 	lds	r18, 0x01BB
     4ee:	22 23       	and	r18, r18
     4f0:	29 f0       	breq	.+10     	; 0x4fc <main+0x108>
					       &CurrStateTable->Attributes,
					       sizeof(HID_ReportItem_Attributes_t));

					NewReportItem.ItemFlags      = ReportItemData;
     4f2:	80 91 bb 01 	lds	r24, 0x01BB
					NewReportItem.CollectionPath = CurrCollectionPath;
     4f6:	81 11       	cpse	r24, r1
     4f8:	11 c0       	rjmp	.+34     	; 0x51c <main+0x128>
     4fa:	16 c0       	rjmp	.+44     	; 0x528 <main+0x134>
     4fc:	82 30       	cpi	r24, 0x02	; 2
					NewReportItem.ReportID       = CurrStateTable->ReportID;
     4fe:	91 05       	cpc	r25, r1
     500:	a1 05       	cpc	r26, r1
     502:	b1 05       	cpc	r27, r1
     504:	28 f0       	brcs	.+10     	; 0x510 <main+0x11c>

					if (UsageListSize)
     506:	81 15       	cp	r24, r1
     508:	92 4c       	sbci	r25, 0xC2	; 194
     50a:	a1 40       	sbci	r26, 0x01	; 1
     50c:	b1 05       	cpc	r27, r1
     50e:	89 f7       	brne	.-30     	; 0x4f2 <main+0xfe>
					{
						NewReportItem.Attributes.Usage.Usage = UsageList[0];
     510:	93 b1       	in	r25, 0x03	; 3
     512:	90 72       	andi	r25, 0x20	; 32
     514:	93 b9       	out	0x03, r25	; 3
     516:	99 23       	and	r25, r25
     518:	61 f3       	breq	.-40     	; 0x4f2 <main+0xfe>
     51a:	47 c0       	rjmp	.+142    	; 0x5aa <main+0x1b6>
     51c:	80 91 c5 01 	lds	r24, 0x01C5
     520:	80 63       	ori	r24, 0x30	; 48
     522:	80 93 c5 01 	sts	0x01C5, r24

						for (uint8_t i = 1; i < UsageListSize; i++)
     526:	01 c0       	rjmp	.+2      	; 0x52a <main+0x136>
     528:	64 d2       	rcall	.+1224   	; 0x9f2 <clearHIDReports>
						  UsageList[i - 1] = UsageList[i];
     52a:	80 91 20 01 	lds	r24, 0x0120
     52e:	80 fd       	sbrc	r24, 0
     530:	0c c0       	rjmp	.+24     	; 0x54a <main+0x156>

					if (UsageListSize)
					{
						NewReportItem.Attributes.Usage.Usage = UsageList[0];

						for (uint8_t i = 1; i < UsageListSize; i++)
     532:	80 91 bb 01 	lds	r24, 0x01BB
     536:	88 23       	and	r24, r24
     538:	41 f0       	breq	.+16     	; 0x54a <main+0x156>
     53a:	86 e3       	ldi	r24, 0x36	; 54
     53c:	91 e0       	ldi	r25, 0x01	; 1
						  UsageList[i - 1] = UsageList[i];

						UsageListSize--;
     53e:	f1 de       	rcall	.-542    	; 0x322 <LRingBuffer_Remove.constprop.2>
     540:	80 91 bb 01 	lds	r24, 0x01BB
     544:	81 11       	cpse	r24, r1
     546:	2d c0       	rjmp	.+90     	; 0x5a2 <main+0x1ae>
					}
					else if (UsageMinMax.Minimum <= UsageMinMax.Maximum)
     548:	34 c0       	rjmp	.+104    	; 0x5b2 <main+0x1be>
     54a:	7f b7       	in	r23, 0x3f	; 63
     54c:	f8 94       	cli
     54e:	20 91 36 01 	lds	r18, 0x0136
     552:	30 91 37 01 	lds	r19, 0x0137
     556:	21 15       	cp	r18, r1
     558:	31 05       	cpc	r19, r1
     55a:	41 f0       	breq	.+16     	; 0x56c <main+0x178>
     55c:	40 91 3a 01 	lds	r20, 0x013A
					{
						NewReportItem.Attributes.Usage.Usage = UsageMinMax.Minimum++;
     560:	44 23       	and	r20, r20
     562:	21 f0       	breq	.+8      	; 0x56c <main+0x178>
     564:	50 e0       	ldi	r21, 0x00	; 0
     566:	14 16       	cp	r1, r20
     568:	15 06       	cpc	r1, r21
     56a:	24 f0       	brlt	.+8      	; 0x574 <main+0x180>
     56c:	7f bf       	out	0x3f, r23	; 63
     56e:	6f ef       	ldi	r22, 0xFF	; 255
					}

					uint8_t ItemTypeTag = (HIDReportItem & (HID_RI_TYPE_MASK | HID_RI_TAG_MASK));

					if (ItemTypeTag == HID_RI_INPUT(0))
     570:	7f ef       	ldi	r23, 0xFF	; 255
     572:	10 c0       	rjmp	.+32     	; 0x594 <main+0x1a0>
					  NewReportItem.ItemType = HID_REPORT_ITEM_In;
     574:	80 91 38 01 	lds	r24, 0x0138
					else if (ItemTypeTag == HID_RI_OUTPUT(0))
     578:	90 e0       	ldi	r25, 0x00	; 0
     57a:	84 1b       	sub	r24, r20
					  NewReportItem.ItemType = HID_REPORT_ITEM_Out;
     57c:	95 0b       	sbc	r25, r21
     57e:	97 ff       	sbrs	r25, 7
     580:	04 c0       	rjmp	.+8      	; 0x58a <main+0x196>
					else
					  NewReportItem.ItemType = HID_REPORT_ITEM_Feature;
     582:	40 91 39 01 	lds	r20, 0x0139

					NewReportItem.BitOffset = CurrReportIDInfo->ReportSizeBits[NewReportItem.ItemType];
     586:	84 0f       	add	r24, r20
     588:	91 1d       	adc	r25, r1
     58a:	f9 01       	movw	r30, r18
     58c:	e8 0f       	add	r30, r24
     58e:	f9 1f       	adc	r31, r25
     590:	60 81       	ld	r22, Z
     592:	7f bf       	out	0x3f, r23	; 63
     594:	80 e1       	ldi	r24, 0x10	; 16
     596:	91 e0       	ldi	r25, 0x01	; 1
     598:	0e 94 c4 10 	call	0x2188	; 0x2188 <CDC_Device_SendByte>
     59c:	88 23       	and	r24, r24
     59e:	69 f2       	breq	.-102    	; 0x53a <main+0x146>
     5a0:	71 cf       	rjmp	.-286    	; 0x484 <main+0x90>

					CurrReportIDInfo->ReportSizeBits[NewReportItem.ItemType] += CurrStateTable->Attributes.BitSize;
     5a2:	81 50       	subi	r24, 0x01	; 1
     5a4:	80 93 bb 01 	sts	0x01BB, r24
     5a8:	04 c0       	rjmp	.+8      	; 0x5b2 <main+0x1be>
     5aa:	86 e3       	ldi	r24, 0x36	; 54
     5ac:	91 e0       	ldi	r25, 0x01	; 1
     5ae:	b9 de       	rcall	.-654    	; 0x322 <LRingBuffer_Remove.constprop.2>
     5b0:	64 d2       	rcall	.+1224   	; 0xa7a <checkNHPProtocol>

					ParserData->LargestReportSizeBits = MAX(ParserData->LargestReportSizeBits, CurrReportIDInfo->ReportSizeBits[NewReportItem.ItemType]);
     5b2:	21 96       	adiw	r28, 0x01	; 1
     5b4:	1c 13       	cpse	r17, r28
     5b6:	91 cf       	rjmp	.-222    	; 0x4da <main+0xe6>
     5b8:	65 cf       	rjmp	.-310    	; 0x484 <main+0x90>
     5ba:	a8 9a       	sbi	0x15, 0	; 21
     5bc:	90 91 c5 01 	lds	r25, 0x01C5
     5c0:	89 2f       	mov	r24, r25
     5c2:	80 73       	andi	r24, 0x30	; 48
     5c4:	09 f4       	brne	.+2      	; 0x5c8 <main+0x1d4>
     5c6:	5c c0       	rjmp	.+184    	; 0x680 <main+0x28c>
     5c8:	89 2f       	mov	r24, r25
     5ca:	82 95       	swap	r24
     5cc:	8f 70       	andi	r24, 0x0F	; 15
     5ce:	8d 5f       	subi	r24, 0xFD	; 253
     5d0:	83 70       	andi	r24, 0x03	; 3
     5d2:	28 2f       	mov	r18, r24
     5d4:	22 95       	swap	r18
     5d6:	20 7f       	andi	r18, 0xF0	; 240
     5d8:	9f 7c       	andi	r25, 0xCF	; 207
     5da:	92 2b       	or	r25, r18
     5dc:	90 93 c5 01 	sts	0x01C5, r25
     5e0:	81 11       	cpse	r24, r1
     5e2:	4e c0       	rjmp	.+156    	; 0x680 <main+0x28c>
     5e4:	80 91 be 01 	lds	r24, 0x01BE
     5e8:	81 11       	cpse	r24, r1
     5ea:	4a c0       	rjmp	.+148    	; 0x680 <main+0x28c>
     5ec:	e0 91 e4 01 	lds	r30, 0x01E4
     5f0:	e6 ff       	sbrs	r30, 6

					if (ParserData->TotalReportItems == HID_MAX_REPORTITEMS)
     5f2:	15 c0       	rjmp	.+42     	; 0x61e <main+0x22a>
     5f4:	e6 95       	lsr	r30
     5f6:	e6 95       	lsr	r30
     5f8:	e6 95       	lsr	r30
					  return HID_PARSE_InsufficientReportItems;
     5fa:	e7 70       	andi	r30, 0x07	; 7
     5fc:	f0 e0       	ldi	r31, 0x00	; 0

					memcpy(&ParserData->ReportItems[ParserData->TotalReportItems],
     5fe:	e7 51       	subi	r30, 0x17	; 23
     600:	fe 4f       	sbci	r31, 0xFE	; 254
     602:	60 81       	ld	r22, Z
     604:	86 e3       	ldi	r24, 0x36	; 54
     606:	91 e0       	ldi	r25, 0x01	; 1
     608:	af de       	rcall	.-674    	; 0x368 <LRingBuffer_Append.constprop.4>
     60a:	80 91 e4 01 	lds	r24, 0x01E4
     60e:	86 fb       	bst	r24, 6
     610:	88 27       	eor	r24, r24
     612:	80 f9       	bld	r24, 0
     614:	90 91 bb 01 	lds	r25, 0x01BB
     618:	89 0f       	add	r24, r25
     61a:	80 93 bb 01 	sts	0x01BB, r24
					       &NewReportItem, sizeof(HID_ReportItem_t));

					if (!(ReportItemData & HID_IOF_CONSTANT) && CALLBACK_HIDParser_FilterHIDReportItem(&NewReportItem))
     61e:	00 91 e4 01 	lds	r16, 0x01E4
     622:	07 fd       	sbrc	r16, 7
     624:	29 c0       	rjmp	.+82     	; 0x678 <main+0x284>
     626:	06 95       	lsr	r16
     628:	06 95       	lsr	r16
     62a:	06 95       	lsr	r16
     62c:	07 70       	andi	r16, 0x07	; 7
     62e:	c0 e0       	ldi	r28, 0x00	; 0
     630:	d0 e0       	ldi	r29, 0x00	; 0
     632:	10 e0       	ldi	r17, 0x00	; 0
     634:	86 e3       	ldi	r24, 0x36	; 54
     636:	e8 2e       	mov	r14, r24
     638:	81 e0       	ldi	r24, 0x01	; 1
     63a:	f8 2e       	mov	r15, r24
     63c:	e0 0e       	add	r14, r16
     63e:	f1 1e       	adc	r15, r17
     640:	09 c0       	rjmp	.+18     	; 0x654 <main+0x260>
     642:	f7 01       	movw	r30, r14
     644:	ec 0f       	add	r30, r28
     646:	fd 1f       	adc	r31, r29
     648:	ed 54       	subi	r30, 0x4D	; 77
     64a:	ff 4f       	sbci	r31, 0xFF	; 255
     64c:	60 81       	ld	r22, Z
     64e:	86 e3       	ldi	r24, 0x36	; 54
     650:	91 e0       	ldi	r25, 0x01	; 1
     652:	8a de       	rcall	.-748    	; 0x368 <LRingBuffer_Append.constprop.4>
     654:	21 97       	sbiw	r28, 0x01	; 1
     656:	ce 01       	movw	r24, r28
     658:	80 95       	com	r24
     65a:	90 95       	com	r25
     65c:	80 17       	cp	r24, r16
     65e:	91 07       	cpc	r25, r17
     660:	84 f3       	brlt	.-32     	; 0x642 <main+0x24e>
     662:	80 91 e4 01 	lds	r24, 0x01E4
     666:	86 95       	lsr	r24
     668:	86 95       	lsr	r24
     66a:	86 95       	lsr	r24
     66c:	87 70       	andi	r24, 0x07	; 7
     66e:	90 91 bb 01 	lds	r25, 0x01BB
     672:	89 0f       	add	r24, r25
     674:	80 93 bb 01 	sts	0x01BB, r24
     678:	84 ee       	ldi	r24, 0xE4	; 228
     67a:	91 e0       	ldi	r25, 0x01	; 1
     67c:	cf d6       	rcall	.+3486   	; 0x141c <NHPreset>
					  ParserData->TotalReportItems++;
     67e:	c9 d1       	rcall	.+914    	; 0xa12 <checkNHPControlAddressError>
     680:	90 91 c5 01 	lds	r25, 0x01C5
     684:	89 2f       	mov	r24, r25
				break;

			case HID_RI_INPUT(0):
			case HID_RI_OUTPUT(0):
			case HID_RI_FEATURE(0):
				for (uint8_t ReportItemNum = 0; ReportItemNum < CurrStateTable->ReportCount; ReportItemNum++)
     686:	83 70       	andi	r24, 0x03	; 3
     688:	49 f0       	breq	.+18     	; 0x69c <main+0x2a8>
			default:
				ReportItemData  = 0;
				break;
		}

		switch (HIDReportItem & (HID_RI_TYPE_MASK | HID_RI_TAG_MASK))
     68a:	81 50       	subi	r24, 0x01	; 1
			case HID_RI_FEATURE(0):
				for (uint8_t ReportItemNum = 0; ReportItemNum < CurrStateTable->ReportCount; ReportItemNum++)
				{
					HID_ReportItem_t NewReportItem;

					memcpy(&NewReportItem.Attributes,
     68c:	83 70       	andi	r24, 0x03	; 3
					  return HID_PARSE_InsufficientReportItems;

					memcpy(&ParserData->ReportItems[ParserData->TotalReportItems],
					       &NewReportItem, sizeof(HID_ReportItem_t));

					if (!(ReportItemData & HID_IOF_CONSTANT) && CALLBACK_HIDParser_FilterHIDReportItem(&NewReportItem))
     68e:	9c 7f       	andi	r25, 0xFC	; 252
     690:	98 2b       	or	r25, r24
     692:	90 93 c5 01 	sts	0x01C5, r25
     696:	81 11       	cpse	r24, r1
     698:	01 c0       	rjmp	.+2      	; 0x69c <main+0x2a8>
     69a:	5d 9a       	sbi	0x0b, 5	; 11
     69c:	90 91 c5 01 	lds	r25, 0x01C5
     6a0:	89 2f       	mov	r24, r25
     6a2:	8c 70       	andi	r24, 0x0C	; 12
     6a4:	79 f0       	breq	.+30     	; 0x6c4 <main+0x2d0>
     6a6:	89 2f       	mov	r24, r25
     6a8:	86 95       	lsr	r24
				break;

			case HID_RI_INPUT(0):
			case HID_RI_OUTPUT(0):
			case HID_RI_FEATURE(0):
				for (uint8_t ReportItemNum = 0; ReportItemNum < CurrStateTable->ReportCount; ReportItemNum++)
     6aa:	86 95       	lsr	r24
     6ac:	8d 5f       	subi	r24, 0xFD	; 253
     6ae:	83 70       	andi	r24, 0x03	; 3
     6b0:	28 2f       	mov	r18, r24
     6b2:	22 0f       	add	r18, r18
     6b4:	22 0f       	add	r18, r18
     6b6:	93 7f       	andi	r25, 0xF3	; 243
			default:
				ReportItemData  = 0;
				break;
		}

		switch (HIDReportItem & (HID_RI_TYPE_MASK | HID_RI_TAG_MASK))
     6b8:	92 2b       	or	r25, r18
     6ba:	90 93 c5 01 	sts	0x01C5, r25

			default:
				break;
		}

		if ((HIDReportItem & HID_RI_TYPE_MASK) == HID_RI_TYPE_MAIN)
     6be:	81 11       	cpse	r24, r1
     6c0:	01 c0       	rjmp	.+2      	; 0x6c4 <main+0x2d0>
     6c2:	5c 9a       	sbi	0x0b, 4	; 11
     6c4:	80 e1       	ldi	r24, 0x10	; 16
		{
			UsageMinMax.Minimum = 0;
			UsageMinMax.Maximum = 0;
     6c6:	91 e0       	ldi	r25, 0x01	; 1
     6c8:	0e 94 16 11 	call	0x222c	; 0x222c <CDC_Device_USBTask>
     6cc:	0e 94 83 10 	call	0x2106	; 0x2106 <USB_USBTask>
     6d0:	aa ce       	rjmp	.-684    	; 0x426 <main+0x32>

000006d2 <EVENT_USB_Device_Connect>:
				break;
		}

		if ((HIDReportItem & HID_RI_TYPE_MASK) == HID_RI_TYPE_MAIN)
		{
			UsageMinMax.Minimum = 0;
     6d2:	08 95       	ret

000006d4 <EVENT_USB_Device_Disconnect>:
     6d4:	08 95       	ret

000006d6 <EVENT_USB_Device_ConfigurationChanged>:
     6d6:	80 e0       	ldi	r24, 0x00	; 0
			UsageMinMax.Maximum = 0;
			UsageListSize       = 0;
     6d8:	91 e0       	ldi	r25, 0x01	; 1
     6da:	0e 94 42 13 	call	0x2684	; 0x2684 <HID_Device_ConfigureEndpoints>
	memset(CurrStateTable,   0x00, sizeof(HID_StateTable_t));
	memset(CurrReportIDInfo, 0x00, sizeof(HID_ReportSizeInfo_t));

	ParserData->TotalDeviceReports = 1;

	while (ReportSize)
     6de:	80 e1       	ldi	r24, 0x10	; 16
     6e0:	91 e0       	ldi	r25, 0x01	; 1
     6e2:	0e 94 9f 10 	call	0x213e	; 0x213e <CDC_Device_ConfigureEndpoints>
     6e6:	e2 ee       	ldi	r30, 0xE2	; 226
     6e8:	f0 e0       	ldi	r31, 0x00	; 0
     6ea:	80 81       	ld	r24, Z
			UsageMinMax.Maximum = 0;
			UsageListSize       = 0;
		}
	}

	if (!(ParserData->TotalReportItems))
     6ec:	84 60       	ori	r24, 0x04	; 4
     6ee:	80 83       	st	Z, r24
     6f0:	08 95       	ret

000006f2 <__vector_23>:
     6f2:	1f 92       	push	r1
	  return HID_PARSE_NoUnfilteredReportItems;
     6f4:	0f 92       	push	r0
     6f6:	0f b6       	in	r0, 0x3f	; 63

		switch (HIDReportItem & (HID_RI_TYPE_MASK | HID_RI_TAG_MASK))
		{
			case HID_RI_PUSH(0):
				if (CurrStateTable == &StateTable[HID_STATETABLE_STACK_DEPTH - 1])
				  return HID_PARSE_HIDStackOverflow;
     6f8:	0f 92       	push	r0
     6fa:	11 24       	eor	r1, r1
				CurrStateTable++;
				break;

			case HID_RI_POP(0):
				if (CurrStateTable == &StateTable[0])
				  return HID_PARSE_HIDStackUnderflow;
     6fc:	2f 93       	push	r18
     6fe:	3f 93       	push	r19
				CurrReportIDInfo->ReportID = CurrStateTable->ReportID;
				break;

			case HID_RI_USAGE(0):
				if (UsageListSize == HID_USAGE_STACK_DEPTH)
				  return HID_PARSE_UsageListOverflow;
     700:	4f 93       	push	r20
     702:	5f 93       	push	r21
					CurrCollectionPath = &ParserData->CollectionPaths[1];

					while (CurrCollectionPath->Parent != NULL)
					{
						if (CurrCollectionPath == &ParserData->CollectionPaths[HID_MAX_COLLECTIONS - 1])
						  return HID_PARSE_InsufficientCollectionPaths;
     704:	8f 93       	push	r24
     706:	9f 93       	push	r25

				break;

			case HID_RI_END_COLLECTION(0):
				if (CurrCollectionPath == NULL)
				  return HID_PARSE_UnexpectedEndCollection;
     708:	af 93       	push	r26
     70a:	bf 93       	push	r27
	}

	if (!(ParserData->TotalReportItems))
	  return HID_PARSE_NoUnfilteredReportItems;

	return HID_PARSE_Successful;
     70c:	ef 93       	push	r30
     70e:	ff 93       	push	r31
					}

					if (CurrReportIDInfo == NULL)
					{
						if (ParserData->TotalDeviceReports == HID_MAX_REPORT_IDS)
						  return HID_PARSE_InsufficientReportIDItems;
     710:	40 91 ce 00 	lds	r20, 0x00CE
						}
					}

					if (CurrReportIDInfo == NULL)
					{
						if (ParserData->TotalDeviceReports == HID_MAX_REPORT_IDS)
     714:	80 91 be 01 	lds	r24, 0x01BE
     718:	81 11       	cpse	r24, r1
     71a:	21 c0       	rjmp	.+66     	; 0x75e <__vector_23+0x6c>

	if (!(ParserData->TotalReportItems))
	  return HID_PARSE_NoUnfilteredReportItems;

	return HID_PARSE_Successful;
}
     71c:	80 91 f3 01 	lds	r24, 0x01F3
     720:	84 30       	cpi	r24, 0x04	; 4
     722:	e9 f4       	brne	.+58     	; 0x75e <__vector_23+0x6c>
     724:	e6 e3       	ldi	r30, 0x36	; 54
     726:	f1 e0       	ldi	r31, 0x01	; 1
     728:	2f b7       	in	r18, 0x3f	; 63
     72a:	f8 94       	cli
     72c:	80 81       	ld	r24, Z
     72e:	91 81       	ldd	r25, Z+1	; 0x01
     730:	00 97       	sbiw	r24, 0x00	; 0
     732:	a1 f0       	breq	.+40     	; 0x75c <__vector_23+0x6a>
     734:	54 81       	ldd	r21, Z+4	; 0x04
     736:	33 81       	ldd	r19, Z+3	; 0x03
     738:	53 13       	cpse	r21, r19
     73a:	01 c0       	rjmp	.+2      	; 0x73e <__vector_23+0x4c>
     73c:	0f c0       	rjmp	.+30     	; 0x75c <__vector_23+0x6a>
     73e:	32 81       	ldd	r19, Z+2	; 0x02
     740:	dc 01       	movw	r26, r24
     742:	a3 0f       	add	r26, r19
     744:	b1 1d       	adc	r27, r1
     746:	4c 93       	st	X, r20
     748:	83 2f       	mov	r24, r19
     74a:	8f 5f       	subi	r24, 0xFF	; 255
     74c:	82 83       	std	Z+2, r24	; 0x02
     74e:	93 81       	ldd	r25, Z+3	; 0x03
			return;
		}

		// save new data to the current index and return to its beginning if it reaches the bound
		Buffer->Base[Buffer->Index++] = Data;
		if (Buffer->Index == Buffer->Size)
     750:	89 13       	cpse	r24, r25
     752:	01 c0       	rjmp	.+2      	; 0x756 <__vector_23+0x64>
			Buffer->Index = 0;
     754:	12 82       	std	Z+2, r1	; 0x02

		Buffer->Count++;
     756:	84 81       	ldd	r24, Z+4	; 0x04
     758:	8f 5f       	subi	r24, 0xFF	; 255
     75a:	84 83       	std	Z+4, r24	; 0x04
			static inline void SetGlobalInterruptMask(const uint_reg_t GlobalIntState)
			{
				GCC_MEMORY_BARRIER();

				#if (ARCH == ARCH_AVR8)
				SREG = GlobalIntState;
     75c:	2f bf       	out	0x3f, r18	; 63
	uint8_t ReceivedByte = UDR1;

	// save new byte to the buffer (automatically discards if its disabled or full)
	if ((!ram.isp.pmode) &&	(USB_DeviceState == DEVICE_STATE_Configured))
		LRingBuffer_Insert(&ram.RingBuffer, ReceivedByte);
}
     75e:	ff 91       	pop	r31
     760:	ef 91       	pop	r30
     762:	bf 91       	pop	r27
     764:	af 91       	pop	r26
     766:	9f 91       	pop	r25
     768:	8f 91       	pop	r24
     76a:	5f 91       	pop	r21
     76c:	4f 91       	pop	r20
     76e:	3f 91       	pop	r19
     770:	2f 91       	pop	r18
     772:	0f 90       	pop	r0
     774:	0f be       	out	0x3f, r0	; 63
     776:	0f 90       	pop	r0
     778:	1f 90       	pop	r1
     77a:	18 95       	reti

0000077c <EVENT_USB_Device_ControlRequest>:

/** Event handler for the library USB Control Request reception event. */
void EVENT_USB_Device_ControlRequest(void)
{
	CDC_Device_ProcessControlRequest(&VirtualSerial_CDC_Interface);
     77c:	80 e1       	ldi	r24, 0x10	; 16
     77e:	91 e0       	ldi	r25, 0x01	; 1
     780:	0e 94 5a 11 	call	0x22b4	; 0x22b4 <CDC_Device_ProcessControlRequest>
	HID_Device_ProcessControlRequest(&Device_HID_Interface); //<--new
     784:	80 e0       	ldi	r24, 0x00	; 0
     786:	91 e0       	ldi	r25, 0x01	; 1
     788:	0c 94 0b 12 	jmp	0x2416	; 0x2416 <HID_Device_ProcessControlRequest>

0000078c <EVENT_USB_Device_StartOfFrame>:
			 *  \param[in,out] HIDInterfaceInfo  Pointer to a structure containing a HID Class configuration and state.
			 */
			static inline void HID_Device_MillisecondElapsed(USB_ClassInfo_HID_Device_t* const HIDInterfaceInfo) ATTR_ALWAYS_INLINE ATTR_NON_NULL_PTR_ARG(1);
			static inline void HID_Device_MillisecondElapsed(USB_ClassInfo_HID_Device_t* const HIDInterfaceInfo)
			{
				if (HIDInterfaceInfo->State.IdleMSRemaining)
     78c:	80 91 0e 01 	lds	r24, 0x010E
     790:	90 91 0f 01 	lds	r25, 0x010F
     794:	00 97       	sbiw	r24, 0x00	; 0
     796:	29 f0       	breq	.+10     	; 0x7a2 <EVENT_USB_Device_StartOfFrame+0x16>
				  HIDInterfaceInfo->State.IdleMSRemaining--;
     798:	01 97       	sbiw	r24, 0x01	; 1
     79a:	90 93 0f 01 	sts	0x010F, r25
     79e:	80 93 0e 01 	sts	0x010E, r24
     7a2:	08 95       	ret

000007a4 <CALLBACK_USB_GetDescriptor>:
		break;
	}

	*DescriptorAddress = Address;
	return Size;
}
     7a4:	29 2f       	mov	r18, r25
     7a6:	33 27       	eor	r19, r19
	const uint8_t  DescriptorNumber = (wValue & 0xFF);

	const void* Address = NULL;
	uint16_t    Size = NO_DESCRIPTOR;

	switch (DescriptorType)
     7a8:	23 30       	cpi	r18, 0x03	; 3
     7aa:	31 05       	cpc	r19, r1
     7ac:	b1 f0       	breq	.+44     	; 0x7da <CALLBACK_USB_GetDescriptor+0x36>
     7ae:	4c f4       	brge	.+18     	; 0x7c2 <CALLBACK_USB_GetDescriptor+0x1e>
     7b0:	21 30       	cpi	r18, 0x01	; 1
     7b2:	31 05       	cpc	r19, r1
     7b4:	09 f4       	brne	.+2      	; 0x7b8 <CALLBACK_USB_GetDescriptor+0x14>
     7b6:	39 c0       	rjmp	.+114    	; 0x82a <CALLBACK_USB_GetDescriptor+0x86>
     7b8:	22 30       	cpi	r18, 0x02	; 2
     7ba:	31 05       	cpc	r19, r1
     7bc:	09 f0       	breq	.+2      	; 0x7c0 <CALLBACK_USB_GetDescriptor+0x1c>
     7be:	3a c0       	rjmp	.+116    	; 0x834 <CALLBACK_USB_GetDescriptor+0x90>
     7c0:	07 c0       	rjmp	.+14     	; 0x7d0 <CALLBACK_USB_GetDescriptor+0x2c>
     7c2:	21 32       	cpi	r18, 0x21	; 33
     7c4:	31 05       	cpc	r19, r1
     7c6:	39 f1       	breq	.+78     	; 0x816 <CALLBACK_USB_GetDescriptor+0x72>
     7c8:	22 32       	cpi	r18, 0x22	; 34
     7ca:	31 05       	cpc	r19, r1
     7cc:	49 f1       	breq	.+82     	; 0x820 <CALLBACK_USB_GetDescriptor+0x7c>
     7ce:	32 c0       	rjmp	.+100    	; 0x834 <CALLBACK_USB_GetDescriptor+0x90>
		Address = &DeviceDescriptor;
		Size = sizeof(USB_Descriptor_Device_t);
		break;
	case DTYPE_Configuration:
		Address = &ConfigurationDescriptor;
		Size = sizeof(USB_Descriptor_Configuration_t);
     7d0:	ef e5       	ldi	r30, 0x5F	; 95
     7d2:	f0 e0       	ldi	r31, 0x00	; 0
	case DTYPE_Device:
		Address = &DeviceDescriptor;
		Size = sizeof(USB_Descriptor_Device_t);
		break;
	case DTYPE_Configuration:
		Address = &ConfigurationDescriptor;
     7d4:	8e eb       	ldi	r24, 0xBE	; 190
     7d6:	90 e0       	ldi	r25, 0x00	; 0
		Size = sizeof(USB_Descriptor_Configuration_t);
		break;
     7d8:	31 c0       	rjmp	.+98     	; 0x83c <CALLBACK_USB_GetDescriptor+0x98>
		break;
	}

	*DescriptorAddress = Address;
	return Size;
}
     7da:	99 27       	eor	r25, r25
	case DTYPE_Configuration:
		Address = &ConfigurationDescriptor;
		Size = sizeof(USB_Descriptor_Configuration_t);
		break;
	case DTYPE_String:
		switch (DescriptorNumber)
     7dc:	81 30       	cpi	r24, 0x01	; 1
     7de:	91 05       	cpc	r25, r1
     7e0:	61 f0       	breq	.+24     	; 0x7fa <CALLBACK_USB_GetDescriptor+0x56>
     7e2:	82 30       	cpi	r24, 0x02	; 2
     7e4:	91 05       	cpc	r25, r1
     7e6:	81 f0       	breq	.+32     	; 0x808 <CALLBACK_USB_GetDescriptor+0x64>
     7e8:	89 2b       	or	r24, r25
     7ea:	21 f5       	brne	.+72     	; 0x834 <CALLBACK_USB_GetDescriptor+0x90>
		{
		case STRING_ID_Language:
			Address = &LanguageString;
			Size = pgm_read_byte(&LanguageString.Header.Size);
     7ec:	ea eb       	ldi	r30, 0xBA	; 186
     7ee:	f0 e0       	ldi	r31, 0x00	; 0
     7f0:	e4 91       	lpm	r30, Z+
     7f2:	f0 e0       	ldi	r31, 0x00	; 0
		break;
	case DTYPE_String:
		switch (DescriptorNumber)
		{
		case STRING_ID_Language:
			Address = &LanguageString;
     7f4:	8a eb       	ldi	r24, 0xBA	; 186
     7f6:	90 e0       	ldi	r25, 0x00	; 0
			Size = pgm_read_byte(&LanguageString.Header.Size);
			break;
     7f8:	21 c0       	rjmp	.+66     	; 0x83c <CALLBACK_USB_GetDescriptor+0x98>
		case STRING_ID_Manufacturer:
			Address = &ManufacturerString;
			Size = pgm_read_byte(&ManufacturerString.Header.Size);
     7fa:	e6 ea       	ldi	r30, 0xA6	; 166
     7fc:	f0 e0       	ldi	r31, 0x00	; 0
     7fe:	e4 91       	lpm	r30, Z+
     800:	f0 e0       	ldi	r31, 0x00	; 0
		case STRING_ID_Language:
			Address = &LanguageString;
			Size = pgm_read_byte(&LanguageString.Header.Size);
			break;
		case STRING_ID_Manufacturer:
			Address = &ManufacturerString;
     802:	86 ea       	ldi	r24, 0xA6	; 166
     804:	90 e0       	ldi	r25, 0x00	; 0
			Size = pgm_read_byte(&ManufacturerString.Header.Size);
			break;
     806:	1a c0       	rjmp	.+52     	; 0x83c <CALLBACK_USB_GetDescriptor+0x98>
		case STRING_ID_Product:
			Address = &ProductString;
			Size = pgm_read_byte(&ProductString.Header.Size);
     808:	e4 e7       	ldi	r30, 0x74	; 116
     80a:	f0 e0       	ldi	r31, 0x00	; 0
     80c:	e4 91       	lpm	r30, Z+
     80e:	f0 e0       	ldi	r31, 0x00	; 0
		case STRING_ID_Manufacturer:
			Address = &ManufacturerString;
			Size = pgm_read_byte(&ManufacturerString.Header.Size);
			break;
		case STRING_ID_Product:
			Address = &ProductString;
     810:	84 e7       	ldi	r24, 0x74	; 116
     812:	90 e0       	ldi	r25, 0x00	; 0
			Size = pgm_read_byte(&ProductString.Header.Size);
			break;
     814:	13 c0       	rjmp	.+38     	; 0x83c <CALLBACK_USB_GetDescriptor+0x98>
		break;

		//new <--
	case HID_DTYPE_HID:
		Address = &ConfigurationDescriptor.HID_HIDData;
		Size = sizeof(USB_HID_Descriptor_HID_t);
     816:	e9 e0       	ldi	r30, 0x09	; 9
     818:	f0 e0       	ldi	r31, 0x00	; 0

		break;

		//new <--
	case HID_DTYPE_HID:
		Address = &ConfigurationDescriptor.HID_HIDData;
     81a:	8d e0       	ldi	r24, 0x0D	; 13
     81c:	91 e0       	ldi	r25, 0x01	; 1
		Size = sizeof(USB_HID_Descriptor_HID_t);
		break;
     81e:	0e c0       	rjmp	.+28     	; 0x83c <CALLBACK_USB_GetDescriptor+0x98>
	case HID_DTYPE_Report:
		Address = &HIDReport;
		Size = sizeof(HIDReport);
     820:	e8 eb       	ldi	r30, 0xB8	; 184
     822:	f1 e0       	ldi	r31, 0x01	; 1
	case HID_DTYPE_HID:
		Address = &ConfigurationDescriptor.HID_HIDData;
		Size = sizeof(USB_HID_Descriptor_HID_t);
		break;
	case HID_DTYPE_Report:
		Address = &HIDReport;
     824:	8f e2       	ldi	r24, 0x2F	; 47
     826:	91 e0       	ldi	r25, 0x01	; 1
		Size = sizeof(HIDReport);
		break;
     828:	09 c0       	rjmp	.+18     	; 0x83c <CALLBACK_USB_GetDescriptor+0x98>

	switch (DescriptorType)
	{
	case DTYPE_Device:
		Address = &DeviceDescriptor;
		Size = sizeof(USB_Descriptor_Device_t);
     82a:	e2 e1       	ldi	r30, 0x12	; 18
     82c:	f0 e0       	ldi	r31, 0x00	; 0
	uint16_t    Size = NO_DESCRIPTOR;

	switch (DescriptorType)
	{
	case DTYPE_Device:
		Address = &DeviceDescriptor;
     82e:	8d e1       	ldi	r24, 0x1D	; 29
     830:	91 e0       	ldi	r25, 0x01	; 1
     832:	04 c0       	rjmp	.+8      	; 0x83c <CALLBACK_USB_GetDescriptor+0x98>
{
	const uint8_t  DescriptorType = (wValue >> 8);
	const uint8_t  DescriptorNumber = (wValue & 0xFF);

	const void* Address = NULL;
	uint16_t    Size = NO_DESCRIPTOR;
     834:	e0 e0       	ldi	r30, 0x00	; 0
     836:	f0 e0       	ldi	r31, 0x00	; 0
	const void** const DescriptorAddress)
{
	const uint8_t  DescriptorType = (wValue >> 8);
	const uint8_t  DescriptorNumber = (wValue & 0xFF);

	const void* Address = NULL;
     838:	80 e0       	ldi	r24, 0x00	; 0
     83a:	90 e0       	ldi	r25, 0x00	; 0
		Address = &HIDReport;
		Size = sizeof(HIDReport);
		break;
	}

	*DescriptorAddress = Address;
     83c:	da 01       	movw	r26, r20
     83e:	8d 93       	st	X+, r24
     840:	9c 93       	st	X, r25
	return Size;
}
     842:	cf 01       	movw	r24, r30
     844:	08 95       	ret

00000846 <LRingBuffer_Append_Buffer.constprop.0>:
		SetGlobalInterruptMask(CurrentGlobalInt);
	}

	static inline void LRingBuffer_Append_Buffer(LRingBuffer_t* Buffer,
		uint8_t* const DataPtr, const uint8_t Size) ATTR_NON_NULL_PTR_ARG(1) ATTR_NON_NULL_PTR_ARG(2);
	static inline void LRingBuffer_Append_Buffer(LRingBuffer_t* Buffer,
     846:	ff 92       	push	r15
     848:	0f 93       	push	r16
     84a:	1f 93       	push	r17
     84c:	cf 93       	push	r28
     84e:	df 93       	push	r29
		uint8_t* const DataPtr, const uint8_t Size)
	{
		// append all bytes, last byte first
		for (int i = 0; i < Size; i++)
     850:	20 e0       	ldi	r18, 0x00	; 0
     852:	30 e0       	ldi	r19, 0x00	; 0
     854:	50 e0       	ldi	r21, 0x00	; 0
		SetGlobalInterruptMask(CurrentGlobalInt);
	}

	static inline void LRingBuffer_Append_Buffer(LRingBuffer_t* Buffer,
		uint8_t* const DataPtr, const uint8_t Size) ATTR_NON_NULL_PTR_ARG(1) ATTR_NON_NULL_PTR_ARG(2);
	static inline void LRingBuffer_Append_Buffer(LRingBuffer_t* Buffer,
     856:	64 0f       	add	r22, r20
     858:	75 1f       	adc	r23, r21
	}

	static inline void LRingBuffer_Append(LRingBuffer_t* Buffer, const uint8_t Data) ATTR_NON_NULL_PTR_ARG(1);
	static inline void LRingBuffer_Append(LRingBuffer_t* Buffer, const uint8_t Data)
	{
		GCC_FORCE_POINTER_ACCESS(Buffer);
     85a:	c6 e3       	ldi	r28, 0x36	; 54
     85c:	d1 e0       	ldi	r29, 0x01	; 1
     85e:	2c c0       	rjmp	.+88     	; 0x8b8 <LRingBuffer_Append_Buffer.constprop.0+0x72>
		SetGlobalInterruptMask(CurrentGlobalInt);
	}

	static inline void LRingBuffer_Append_Buffer(LRingBuffer_t* Buffer,
		uint8_t* const DataPtr, const uint8_t Size) ATTR_NON_NULL_PTR_ARG(1) ATTR_NON_NULL_PTR_ARG(2);
	static inline void LRingBuffer_Append_Buffer(LRingBuffer_t* Buffer,
     860:	fb 01       	movw	r30, r22
     862:	e2 1b       	sub	r30, r18
     864:	f3 0b       	sbc	r31, r19
     866:	31 97       	sbiw	r30, 0x01	; 1
		uint8_t* const DataPtr, const uint8_t Size)
	{
		// append all bytes, last byte first
		for (int i = 0; i < Size; i++)
			LRingBuffer_Append(Buffer, DataPtr[Size - i - 1]);
     868:	00 81       	ld	r16, Z
	}

	static inline void LRingBuffer_Append(LRingBuffer_t* Buffer, const uint8_t Data) ATTR_NON_NULL_PTR_ARG(1);
	static inline void LRingBuffer_Append(LRingBuffer_t* Buffer, const uint8_t Data)
	{
		GCC_FORCE_POINTER_ACCESS(Buffer);
     86a:	fe 01       	movw	r30, r28
			static inline uint_reg_t GetGlobalInterruptMask(void)
			{
				GCC_MEMORY_BARRIER();

				#if (ARCH == ARCH_AVR8)
				return SREG;
     86c:	1f b7       	in	r17, 0x3f	; 63
			static inline void GlobalInterruptDisable(void)
			{
				GCC_MEMORY_BARRIER();

				#if (ARCH == ARCH_AVR8)
				cli();
     86e:	f8 94       	cli

		uint_reg_t CurrentGlobalInt = GetGlobalInterruptMask();
		GlobalInterruptDisable();

		// check if buffer is disabled
		if ((!Buffer->Base)){
     870:	a0 81       	ld	r26, Z
     872:	b1 81       	ldd	r27, Z+1	; 0x01
     874:	10 97       	sbiw	r26, 0x00	; 0
     876:	09 f4       	brne	.+2      	; 0x87a <LRingBuffer_Append_Buffer.constprop.0+0x34>
     878:	1c c0       	rjmp	.+56     	; 0x8b2 <LRingBuffer_Append_Buffer.constprop.0+0x6c>
			SetGlobalInterruptMask(CurrentGlobalInt);
			return;
		}

		// save new data before the first item
		int pos = Buffer->Index - Buffer->Count - 1;
     87a:	82 81       	ldd	r24, Z+2	; 0x02
     87c:	90 e0       	ldi	r25, 0x00	; 0
     87e:	f4 80       	ldd	r15, Z+4	; 0x04
     880:	8f 19       	sub	r24, r15
     882:	91 09       	sbc	r25, r1
     884:	01 97       	sbiw	r24, 0x01	; 1
		if (pos < 0)
     886:	97 ff       	sbrs	r25, 7
     888:	03 c0       	rjmp	.+6      	; 0x890 <LRingBuffer_Append_Buffer.constprop.0+0x4a>
			pos = Buffer->Size + pos;
     88a:	f3 80       	ldd	r15, Z+3	; 0x03
     88c:	8f 0d       	add	r24, r15
     88e:	91 1d       	adc	r25, r1
		Buffer->Base[pos] = Data;
     890:	a8 0f       	add	r26, r24
     892:	b9 1f       	adc	r27, r25
     894:	0c 93       	st	X, r16

		// correct index position if its full 
		if (Buffer->Count == Buffer->Size){
     896:	84 81       	ldd	r24, Z+4	; 0x04
     898:	93 81       	ldd	r25, Z+3	; 0x03
     89a:	89 13       	cpse	r24, r25
     89c:	08 c0       	rjmp	.+16     	; 0x8ae <LRingBuffer_Append_Buffer.constprop.0+0x68>
			if (Buffer->Index == 0)
     89e:	92 81       	ldd	r25, Z+2	; 0x02
     8a0:	91 11       	cpse	r25, r1
     8a2:	01 c0       	rjmp	.+2      	; 0x8a6 <LRingBuffer_Append_Buffer.constprop.0+0x60>
				Buffer->Index = Buffer->Size;
     8a4:	82 83       	std	Z+2, r24	; 0x02
			Buffer->Index--;
     8a6:	82 81       	ldd	r24, Z+2	; 0x02
     8a8:	81 50       	subi	r24, 0x01	; 1
     8aa:	82 83       	std	Z+2, r24	; 0x02
     8ac:	02 c0       	rjmp	.+4      	; 0x8b2 <LRingBuffer_Append_Buffer.constprop.0+0x6c>
		}
		// increase Counter if its not full. This will overwrite newer bytes if its already full!
		else Buffer->Count++;
     8ae:	8f 5f       	subi	r24, 0xFF	; 255
     8b0:	84 83       	std	Z+4, r24	; 0x04
			static inline void SetGlobalInterruptMask(const uint_reg_t GlobalIntState)
			{
				GCC_MEMORY_BARRIER();

				#if (ARCH == ARCH_AVR8)
				SREG = GlobalIntState;
     8b2:	1f bf       	out	0x3f, r17	; 63
		uint8_t* const DataPtr, const uint8_t Size) ATTR_NON_NULL_PTR_ARG(1) ATTR_NON_NULL_PTR_ARG(2);
	static inline void LRingBuffer_Append_Buffer(LRingBuffer_t* Buffer,
		uint8_t* const DataPtr, const uint8_t Size)
	{
		// append all bytes, last byte first
		for (int i = 0; i < Size; i++)
     8b4:	2f 5f       	subi	r18, 0xFF	; 255
     8b6:	3f 4f       	sbci	r19, 0xFF	; 255
     8b8:	24 17       	cp	r18, r20
     8ba:	35 07       	cpc	r19, r21
     8bc:	8c f2       	brlt	.-94     	; 0x860 <LRingBuffer_Append_Buffer.constprop.0+0x1a>
			LRingBuffer_Append(Buffer, DataPtr[Size - i - 1]);
	}
     8be:	df 91       	pop	r29
     8c0:	cf 91       	pop	r28
     8c2:	1f 91       	pop	r17
     8c4:	0f 91       	pop	r16
     8c6:	ff 90       	pop	r15
     8c8:	08 95       	ret

000008ca <CALLBACK_HID_Device_CreateHIDReport>:
bool CALLBACK_HID_Device_CreateHIDReport(USB_ClassInfo_HID_Device_t* const HIDInterfaceInfo,
	uint8_t* const ReportID,
	const uint8_t ReportType,
	void* ReportData,
	uint16_t* const ReportSize)
{
     8ca:	ef 92       	push	r14
     8cc:	ff 92       	push	r15
     8ce:	0f 93       	push	r16
     8d0:	1f 93       	push	r17
     8d2:	cf 93       	push	r28
     8d4:	df 93       	push	r29
     8d6:	7b 01       	movw	r14, r22
     8d8:	c9 01       	movw	r24, r18
     8da:	e8 01       	movw	r28, r16

	if (ram.isp.pmode || (!(AVR_NO_HID_PIN &= AVR_NO_HID_MASK))){
     8dc:	20 91 be 01 	lds	r18, 0x01BE
     8e0:	22 23       	and	r18, r18
     8e2:	31 f0       	breq	.+12     	; 0x8f0 <CALLBACK_HID_Device_CreateHIDReport+0x26>
		//TODO improve
		*ReportID = 0;
     8e4:	f7 01       	movw	r30, r14
     8e6:	10 82       	st	Z, r1
		*ReportSize = 0;
     8e8:	19 82       	std	Y+1, r1	; 0x01
     8ea:	18 82       	st	Y, r1
		return false;
     8ec:	80 e0       	ldi	r24, 0x00	; 0
     8ee:	26 c0       	rjmp	.+76     	; 0x93c <CALLBACK_HID_Device_CreateHIDReport+0x72>
	const uint8_t ReportType,
	void* ReportData,
	uint16_t* const ReportSize)
{

	if (ram.isp.pmode || (!(AVR_NO_HID_PIN &= AVR_NO_HID_MASK))){
     8f0:	43 b1       	in	r20, 0x03	; 3
     8f2:	40 72       	andi	r20, 0x20	; 32
     8f4:	43 b9       	out	0x03, r20	; 3
     8f6:	44 23       	and	r20, r20
     8f8:	a9 f3       	breq	.-22     	; 0x8e4 <CALLBACK_HID_Device_CreateHIDReport+0x1a>
	// only send report if there is actually a new report
	//if (ram.HID.ID){
	//TODO remove this

	// set a general and specific flag that a report was made, ignore rawHID
	if (ram.HID.ID != HID_REPORTID_RawKeyboardReport){
     8fa:	e0 91 c6 01 	lds	r30, 0x01C6
     8fe:	e3 30       	cpi	r30, 0x03	; 3
     900:	31 f0       	breq	.+12     	; 0x90e <CALLBACK_HID_Device_CreateHIDReport+0x44>
		ram.HID.isEmpty[HID_REPORTID_NotAReport] = false;
     902:	10 92 da 01 	sts	0x01DA, r1
		ram.HID.isEmpty[ram.HID.ID] = false;
     906:	f0 e0       	ldi	r31, 0x00	; 0
     908:	e6 52       	subi	r30, 0x26	; 38
     90a:	fe 4f       	sbci	r31, 0xFE	; 254
     90c:	10 82       	st	Z, r1
	}

	//write report
	memcpy(ReportData, ram.HID.buffer, ram.HID.length);
     90e:	40 91 c7 01 	lds	r20, 0x01C7
     912:	e9 ec       	ldi	r30, 0xC9	; 201
     914:	f1 e0       	ldi	r31, 0x01	; 1
     916:	50 e0       	ldi	r21, 0x00	; 0
     918:	bf 01       	movw	r22, r30
     91a:	0e 94 4a 14 	call	0x2894	; 0x2894 <memcpy>
	*ReportID = ram.HID.ID;
     91e:	80 91 c6 01 	lds	r24, 0x01C6
     922:	f7 01       	movw	r30, r14
     924:	80 83       	st	Z, r24
	*ReportSize = ram.HID.length;
     926:	80 91 c7 01 	lds	r24, 0x01C7
     92a:	88 83       	st	Y, r24
     92c:	19 82       	std	Y+1, r1	; 0x01

	// reset ID
	ram.HID.ID = 0;
     92e:	10 92 c6 01 	sts	0x01C6, r1
	ram.HID.recvlength = 0; //just to be sure if you call HID_Task by accident again
     932:	10 92 c8 01 	sts	0x01C8, r1
	ram.HID.length = 0; //just to be sure if you call HID_Task by accident again
     936:	10 92 c7 01 	sts	0x01C7, r1

	// always return true, because we cannot compare with >1 report due to ram limit
	// this will forcewrite the report every time
	return true;
     93a:	81 e0       	ldi	r24, 0x01	; 1

	//}
	//else return false;
}
     93c:	df 91       	pop	r29
     93e:	cf 91       	pop	r28
     940:	1f 91       	pop	r17
     942:	0f 91       	pop	r16
     944:	ff 90       	pop	r15
     946:	ef 90       	pop	r14
     948:	08 95       	ret

0000094a <CALLBACK_HID_Device_ProcessHIDReport>:
void CALLBACK_HID_Device_ProcessHIDReport(USB_ClassInfo_HID_Device_t* const HIDInterfaceInfo,
	const uint8_t ReportID,
	const uint8_t ReportType,
	const void* ReportData,
	const uint16_t ReportSize)
{
     94a:	0f 93       	push	r16
     94c:	1f 93       	push	r17
     94e:	c9 01       	movw	r24, r18
	// Unused in this demo, since there are no Host->Device reports
	//	uint8_t* LEDReport = (uint8_t*)ReportData;

	if (ReportID == HID_REPORTID_RawKeyboardReport){
     950:	63 30       	cpi	r22, 0x03	; 3
     952:	51 f4       	brne	.+20     	; 0x968 <CALLBACK_HID_Device_ProcessHIDReport+0x1e>
		PORTD |= LEDS_ALL_LEDS;
	}

	static inline void LEDs_TurnOnLEDs(const uint8_t LEDMask)
	{
		PORTD &= ~LEDMask;
     954:	5c 98       	cbi	0x0b, 4	; 11
		//LEDs_SetAllLEDs(LEDS_ALL_LEDS);
		//while (1); //TODO remove <--

		// Turn on RX LED
		LEDs_TurnOnLEDs(LEDMASK_RX);
		ram.PulseMSRemaining.RxLEDPulse = TX_RX_LED_PULSE_MS;
     956:	20 91 c5 01 	lds	r18, 0x01C5
     95a:	2c 60       	ori	r18, 0x0C	; 12
     95c:	20 93 c5 01 	sts	0x01C5, r18

		// Send bytes
		Serial_SendData(ReportData, ReportSize);
     960:	b8 01       	movw	r22, r16
	}
}
     962:	1f 91       	pop	r17
     964:	0f 91       	pop	r16
		// Turn on RX LED
		LEDs_TurnOnLEDs(LEDMASK_RX);
		ram.PulseMSRemaining.RxLEDPulse = TX_RX_LED_PULSE_MS;

		// Send bytes
		Serial_SendData(ReportData, ReportSize);
     966:	0d c7       	rjmp	.+3610   	; 0x1782 <Serial_SendData>
     968:	1f 91       	pop	r17
	}
}
     96a:	0f 91       	pop	r16
     96c:	08 95       	ret

0000096e <flushHID>:

	// save new empty state
	ram.HID.isEmpty[ID] = true;
}

void flushHID(void){
     96e:	04 c0       	rjmp	.+8      	; 0x978 <flushHID+0xa>
	// TODO timeout? <--
	// try to send until its done
	while (ram.HID.ID && ram.HID.length == ram.HID.recvlength)
		HID_Device_USBTask(&Device_HID_Interface);
     970:	80 e0       	ldi	r24, 0x00	; 0
     972:	91 e0       	ldi	r25, 0x01	; 1
     974:	0e 94 57 13 	call	0x26ae	; 0x26ae <HID_Device_USBTask>
}

void flushHID(void){
	// TODO timeout? <--
	// try to send until its done
	while (ram.HID.ID && ram.HID.length == ram.HID.recvlength)
     978:	80 91 c6 01 	lds	r24, 0x01C6
     97c:	88 23       	and	r24, r24
     97e:	31 f0       	breq	.+12     	; 0x98c <flushHID+0x1e>
     980:	90 91 c7 01 	lds	r25, 0x01C7
     984:	80 91 c8 01 	lds	r24, 0x01C8
     988:	98 17       	cp	r25, r24
     98a:	91 f3       	breq	.-28     	; 0x970 <flushHID+0x2>
     98c:	08 95       	ret

0000098e <getHIDReportLength>:
		HID_Device_USBTask(&Device_HID_Interface);
}


uint8_t getHIDReportLength(uint8_t ID){
     98e:	81 50       	subi	r24, 0x01	; 1
     990:	89 30       	cpi	r24, 0x09	; 9
     992:	30 f4       	brcc	.+12     	; 0x9a0 <getHIDReportLength+0x12>
     994:	e8 2f       	mov	r30, r24
     996:	f0 e0       	ldi	r31, 0x00	; 0
     998:	e5 5d       	subi	r30, 0xD5	; 213
     99a:	fe 4f       	sbci	r31, 0xFE	; 254
     99c:	80 81       	ld	r24, Z
     99e:	08 95       	ret
     9a0:	80 e0       	ldi	r24, 0x00	; 0
		// error, write down this wrong ID report
		return 0;
		break;
	} //end switch
	return 0;
}
     9a2:	08 95       	ret

000009a4 <clearHIDReport>:

	// clear the main flag that all reports are empty
	ram.HID.isEmpty[HID_REPORTID_NotAReport] = true;
}

void clearHIDReport(uint8_t ID){
     9a4:	1f 93       	push	r17
     9a6:	cf 93       	push	r28
     9a8:	df 93       	push	r29
     9aa:	18 2f       	mov	r17, r24
	// return if already cleared, RAW HID cannot be cleared
	if (ram.HID.isEmpty[ID] || ID == HID_REPORTID_RawKeyboardReport) return;
     9ac:	c8 2f       	mov	r28, r24
     9ae:	d0 e0       	ldi	r29, 0x00	; 0
     9b0:	c6 52       	subi	r28, 0x26	; 38
     9b2:	de 4f       	sbci	r29, 0xFE	; 254
     9b4:	88 81       	ld	r24, Y
     9b6:	81 11       	cpse	r24, r1
     9b8:	18 c0       	rjmp	.+48     	; 0x9ea <clearHIDReport+0x46>
     9ba:	13 30       	cpi	r17, 0x03	; 3
     9bc:	b1 f0       	breq	.+44     	; 0x9ea <clearHIDReport+0x46>

	// get length of the report if its a valid report
	uint8_t length = getHIDReportLength(ID);
     9be:	81 2f       	mov	r24, r17
     9c0:	e6 df       	rcall	.-52     	; 0x98e <getHIDReportLength>
     9c2:	88 23       	and	r24, r24
	if (!length) return;
     9c4:	91 f0       	breq	.+36     	; 0x9ea <clearHIDReport+0x46>
     9c6:	80 93 c8 01 	sts	0x01C8, r24

	// save new values and prepare for sending
	ram.HID.length = ram.HID.recvlength = length;
     9ca:	80 93 c7 01 	sts	0x01C7, r24
     9ce:	10 93 c6 01 	sts	0x01C6, r17
	ram.HID.ID = ID;
     9d2:	29 ec       	ldi	r18, 0xC9	; 201
	memset(&ram.HID.buffer, 0x00, length);
     9d4:	31 e0       	ldi	r19, 0x01	; 1
     9d6:	48 2f       	mov	r20, r24
     9d8:	50 e0       	ldi	r21, 0x00	; 0
     9da:	60 e0       	ldi	r22, 0x00	; 0
     9dc:	70 e0       	ldi	r23, 0x00	; 0
     9de:	c9 01       	movw	r24, r18
     9e0:	0e 94 53 14 	call	0x28a6	; 0x28a6 <memset>
     9e4:	c4 df       	rcall	.-120    	; 0x96e <flushHID>

	// flush HID
	flushHID();
     9e6:	81 e0       	ldi	r24, 0x01	; 1
     9e8:	88 83       	st	Y, r24

	// save new empty state
	ram.HID.isEmpty[ID] = true;
     9ea:	df 91       	pop	r29
     9ec:	cf 91       	pop	r28
}
     9ee:	1f 91       	pop	r17
     9f0:	08 95       	ret

000009f2 <clearHIDReports>:
		Serial_SendData(ReportData, ReportSize);
	}
}


void clearHIDReports(void){
     9f2:	cf 93       	push	r28
	// dont do anything if the main flag is empty
	if (ram.HID.isEmpty[HID_REPORTID_NotAReport]) return;
     9f4:	80 91 da 01 	lds	r24, 0x01DA
     9f8:	81 11       	cpse	r24, r1
     9fa:	09 c0       	rjmp	.+18     	; 0xa0e <clearHIDReports+0x1c>
     9fc:	c1 e0       	ldi	r28, 0x01	; 1

	// check if every report is empty or not
	for (int i = 1; i < HID_REPORTID_LastNotAReport; i++)
		clearHIDReport(i);
     9fe:	8c 2f       	mov	r24, r28
     a00:	d1 df       	rcall	.-94     	; 0x9a4 <clearHIDReport>
     a02:	cf 5f       	subi	r28, 0xFF	; 255
     a04:	ca 30       	cpi	r28, 0x0A	; 10
void clearHIDReports(void){
	// dont do anything if the main flag is empty
	if (ram.HID.isEmpty[HID_REPORTID_NotAReport]) return;

	// check if every report is empty or not
	for (int i = 1; i < HID_REPORTID_LastNotAReport; i++)
     a06:	d9 f7       	brne	.-10     	; 0x9fe <clearHIDReports+0xc>
     a08:	81 e0       	ldi	r24, 0x01	; 1
		clearHIDReport(i);

	// clear the main flag that all reports are empty
	ram.HID.isEmpty[HID_REPORTID_NotAReport] = true;
     a0a:	80 93 da 01 	sts	0x01DA, r24
     a0e:	cf 91       	pop	r28
}
     a10:	08 95       	ret

00000a12 <checkNHPControlAddressError>:
		// this needs to be appended after the normal protocol!
		checkNHPControlAddressError();
	}
}

void checkNHPControlAddressError(void){
     a12:	1f 93       	push	r17
     a14:	cf 93       	push	r28
     a16:	df 93       	push	r29
     a18:	00 d0       	rcall	.+0      	; 0xa1a <checkNHPControlAddressError+0x8>
     a1a:	00 d0       	rcall	.+0      	; 0xa1c <checkNHPControlAddressError+0xa>
     a1c:	00 d0       	rcall	.+0      	; 0xa1e <checkNHPControlAddressError+0xc>
     a1e:	cd b7       	in	r28, 0x3d	; 61
     a20:	de b7       	in	r29, 0x3e	; 62
	// only write if a control address was just before, maybe it was a random valid address
	// but if we already received some data we handle this as corrupted data and just
	// discard all the bytes
	if (ram.HID.ID && !ram.HID.recvlength){
     a22:	60 91 c6 01 	lds	r22, 0x01C6
     a26:	66 23       	and	r22, r22
     a28:	c1 f0       	breq	.+48     	; 0xa5a <checkNHPControlAddressError+0x48>
     a2a:	80 91 c8 01 	lds	r24, 0x01C8
     a2e:	81 11       	cpse	r24, r1
     a30:	14 c0       	rjmp	.+40     	; 0xa5a <checkNHPControlAddressError+0x48>
		// write the cached buffer (recreate protocol)
		uint8_t buff[6];
		uint8_t length = NHPwriteChecksum(NHP_ADDRESS_CONTROL, (NHP_USAGE_ARDUINOHID << 8) | ram.HID.ID, buff);
     a32:	70 e0       	ldi	r23, 0x00	; 0
     a34:	71 60       	ori	r23, 0x01	; 1
     a36:	ae 01       	movw	r20, r28
     a38:	4f 5f       	subi	r20, 0xFF	; 255
     a3a:	5f 4f       	sbci	r21, 0xFF	; 255
     a3c:	81 e0       	ldi	r24, 0x01	; 1
     a3e:	c4 d5       	rcall	.+2952   	; 0x15c8 <NHPwriteChecksum>
     a40:	18 2f       	mov	r17, r24
     a42:	48 2f       	mov	r20, r24

		// Writes the NHP read buffer with the given length
		LRingBuffer_Append_Buffer(&ram.RingBuffer, buff, length);
     a44:	be 01       	movw	r22, r28
     a46:	6f 5f       	subi	r22, 0xFF	; 255
     a48:	7f 4f       	sbci	r23, 0xFF	; 255
     a4a:	86 e3       	ldi	r24, 0x36	; 54
     a4c:	91 e0       	ldi	r25, 0x01	; 1
     a4e:	fb de       	rcall	.-522    	; 0x846 <LRingBuffer_Append_Buffer.constprop.0>
     a50:	90 91 bb 01 	lds	r25, 0x01BB
		ram.skipNHP += length;
     a54:	91 0f       	add	r25, r17
     a56:	90 93 bb 01 	sts	0x01BB, r25
     a5a:	10 92 c6 01 	sts	0x01C6, r1
	}

	// reset any pending HID reports
	ram.HID.ID = 0;
     a5e:	10 92 c8 01 	sts	0x01C8, r1
	ram.HID.recvlength = 0; // just to be sure
     a62:	10 92 c7 01 	sts	0x01C7, r1
	ram.HID.length = 0; // just to be sure
     a66:	26 96       	adiw	r28, 0x06	; 6
     a68:	0f b6       	in	r0, 0x3f	; 63
}
     a6a:	f8 94       	cli
     a6c:	de bf       	out	0x3e, r29	; 62
     a6e:	0f be       	out	0x3f, r0	; 63
     a70:	cd bf       	out	0x3d, r28	; 61
     a72:	df 91       	pop	r29
     a74:	cf 91       	pop	r28
     a76:	1f 91       	pop	r17
     a78:	08 95       	ret

00000a7a <checkNHPProtocol>:
	} //end switch
	return 0;
}

// Checks for a valid protocol input and writes HID report
void checkNHPProtocol(uint8_t input){
     a7a:	90 91 c5 01 	lds	r25, 0x01C5
     a7e:	90 63       	ori	r25, 0x30	; 48
     a80:	90 93 c5 01 	sts	0x01C5, r25
	// set new timeout mark
	ram.PulseMSRemaining.NHPTimeout = NHP_TIMEOUT_MS;

	NHP_Enum_t address = NHPreadChecksum(input, &ram.NHP);
     a84:	64 ee       	ldi	r22, 0xE4	; 228
     a86:	71 e0       	ldi	r23, 0x01	; 1
     a88:	7c d5       	rcall	.+2808   	; 0x1582 <NHPreadChecksum>
     a8a:	88 23       	and	r24, r24

	if (address == 0)
     a8c:	09 f4       	brne	.+2      	; 0xa90 <checkNHPProtocol+0x16>
     a8e:	75 c0       	rjmp	.+234    	; 0xb7a <checkNHPProtocol+0x100>
     a90:	87 ff       	sbrs	r24, 7
		// reading in progress, dont disturb
		return;
	else if (address < 0){
     a92:	18 c0       	rjmp	.+48     	; 0xac4 <checkNHPProtocol+0x4a>
     a94:	be df       	rcall	.-132    	; 0xa12 <checkNHPControlAddressError>
		// check if previous reading was a valid Control Address and write it down
		checkNHPControlAddressError();
     a96:	40 91 e4 01 	lds	r20, 0x01E4

		// error while reading, write down current buffer (except possible new leads)
		LRingBuffer_Append_Buffer(&ram.RingBuffer, ram.NHP.readbuffer, ram.NHP.readlength);
     a9a:	46 95       	lsr	r20
     a9c:	46 95       	lsr	r20
     a9e:	46 95       	lsr	r20
     aa0:	47 70       	andi	r20, 0x07	; 7
     aa2:	69 ee       	ldi	r22, 0xE9	; 233
     aa4:	71 e0       	ldi	r23, 0x01	; 1
     aa6:	86 e3       	ldi	r24, 0x36	; 54
     aa8:	91 e0       	ldi	r25, 0x01	; 1
     aaa:	cd de       	rcall	.-614    	; 0x846 <LRingBuffer_Append_Buffer.constprop.0>
     aac:	80 91 e4 01 	lds	r24, 0x01E4
     ab0:	86 95       	lsr	r24
		ram.skipNHP += ram.NHP.readlength;
     ab2:	86 95       	lsr	r24
     ab4:	86 95       	lsr	r24
     ab6:	87 70       	andi	r24, 0x07	; 7
     ab8:	90 91 bb 01 	lds	r25, 0x01BB
     abc:	89 0f       	add	r24, r25
     abe:	80 93 bb 01 	sts	0x01BB, r24
     ac2:	08 95       	ret
     ac4:	81 30       	cpi	r24, 0x01	; 1
     ac6:	89 f4       	brne	.+34     	; 0xaea <checkNHPProtocol+0x70>
		return;
     ac8:	90 91 e6 01 	lds	r25, 0x01E6
	}

	// nearly the same priciple like the Protocol itself: check for control address
	if ((address == NHP_ADDRESS_CONTROL) && (((ram.NHP.mWorkData >> 8) & 0xFF) == NHP_USAGE_ARDUINOHID)){
     acc:	91 30       	cpi	r25, 0x01	; 1
     ace:	69 f4       	brne	.+26     	; 0xaea <checkNHPProtocol+0x70>
     ad0:	a0 df       	rcall	.-192    	; 0xa12 <checkNHPControlAddressError>
     ad2:	80 91 e5 01 	lds	r24, 0x01E5
		// check if previous reading was a valid Control Address and write it down
		checkNHPControlAddressError();
     ad6:	80 93 c6 01 	sts	0x01C6, r24

		// get the new report ID and reset the buffer
		ram.HID.ID = ram.NHP.mWorkData & 0xFF;
     ada:	10 92 c8 01 	sts	0x01C8, r1
     ade:	57 df       	rcall	.-338    	; 0x98e <getHIDReportLength>
     ae0:	80 93 c7 01 	sts	0x01C7, r24
		ram.HID.recvlength = 0;
     ae4:	81 11       	cpse	r24, r1

		// TODO remove this cleaning
		//memset(ram.HID.buffer, 0, sizeof(ram.HID.buffer));

		// Determine which interface must have its report generated
		ram.HID.length = getHIDReportLength(ram.HID.ID);
     ae6:	49 c0       	rjmp	.+146    	; 0xb7a <checkNHPProtocol+0x100>
     ae8:	47 c0       	rjmp	.+142    	; 0xb78 <checkNHPProtocol+0xfe>
     aea:	90 91 c6 01 	lds	r25, 0x01C6

		// error, write down this wrong ID report
		if (!ram.HID.length)
     aee:	99 23       	and	r25, r25
     af0:	69 f1       	breq	.+90     	; 0xb4c <checkNHPProtocol+0xd2>
     af2:	60 91 c8 01 	lds	r22, 0x01C8
			checkNHPControlAddressError();
	}

	// we already got a pending report
	else if (ram.HID.ID && (address == (((ram.HID.recvlength + 2) / 2) + 1))){
     af6:	46 2f       	mov	r20, r22
     af8:	50 e0       	ldi	r21, 0x00	; 0
     afa:	99 27       	eor	r25, r25
     afc:	87 fd       	sbrc	r24, 7
     afe:	90 95       	com	r25
     b00:	9a 01       	movw	r18, r20
     b02:	2e 5f       	subi	r18, 0xFE	; 254
     b04:	3f 4f       	sbci	r19, 0xFF	; 255
     b06:	35 95       	asr	r19
     b08:	27 95       	ror	r18
     b0a:	2f 5f       	subi	r18, 0xFF	; 255
     b0c:	3f 4f       	sbci	r19, 0xFF	; 255
     b0e:	82 17       	cp	r24, r18
     b10:	93 07       	cpc	r25, r19
     b12:	e1 f4       	brne	.+56     	; 0xb4c <checkNHPProtocol+0xd2>
     b14:	80 91 e5 01 	lds	r24, 0x01E5
     b18:	90 91 e6 01 	lds	r25, 0x01E6
     b1c:	fa 01       	movw	r30, r20
		// check if the new Address is in correct order of HID reports.
		// the first 2 bytes are sent with Address 2 and so on.

		// save the first byte
		ram.HID.buffer[ram.HID.recvlength++] = (ram.NHP.mWorkData & 0xFF);
     b1e:	e7 53       	subi	r30, 0x37	; 55
     b20:	fe 4f       	sbci	r31, 0xFE	; 254
     b22:	80 83       	st	Z, r24
     b24:	e6 2f       	mov	r30, r22
     b26:	ef 5f       	subi	r30, 0xFF	; 255
     b28:	e0 93 c8 01 	sts	0x01C8, r30
     b2c:	80 91 c7 01 	lds	r24, 0x01C7
     b30:	8e 17       	cp	r24, r30
     b32:	39 f0       	breq	.+14     	; 0xb42 <checkNHPProtocol+0xc8>
     b34:	f0 e0       	ldi	r31, 0x00	; 0

		// if there is another byte we need (for odd max HID reports important
		// to not write over the buff array)
		if (ram.HID.length != ram.HID.recvlength)
     b36:	e7 53       	subi	r30, 0x37	; 55
     b38:	fe 4f       	sbci	r31, 0xFE	; 254
     b3a:	90 83       	st	Z, r25
     b3c:	6e 5f       	subi	r22, 0xFE	; 254
			ram.HID.buffer[ram.HID.recvlength++] = (ram.NHP.mWorkData >> 8);
     b3e:	60 93 c8 01 	sts	0x01C8, r22
     b42:	90 91 c8 01 	lds	r25, 0x01C8
     b46:	89 13       	cpse	r24, r25
     b48:	18 c0       	rjmp	.+48     	; 0xb7a <checkNHPProtocol+0x100>
     b4a:	11 cf       	rjmp	.-478    	; 0x96e <flushHID>

		// we are ready try to submit the new report to the usb host
		// dont block here, we flush the report on the next reading if needed
		if (ram.HID.length == ram.HID.recvlength)
     b4c:	40 91 e4 01 	lds	r20, 0x01E4
     b50:	46 95       	lsr	r20
     b52:	46 95       	lsr	r20
			flushHID();
     b54:	46 95       	lsr	r20
     b56:	47 70       	andi	r20, 0x07	; 7
	}

	// we received a corrupt data packet
	else{
		// just a normal Protocol outside our control address (or corrupted packet), write it down
		LRingBuffer_Append_Buffer(&ram.RingBuffer, ram.NHP.readbuffer, ram.NHP.readlength);
     b58:	69 ee       	ldi	r22, 0xE9	; 233
     b5a:	71 e0       	ldi	r23, 0x01	; 1
     b5c:	86 e3       	ldi	r24, 0x36	; 54
     b5e:	91 e0       	ldi	r25, 0x01	; 1
     b60:	72 de       	rcall	.-796    	; 0x846 <LRingBuffer_Append_Buffer.constprop.0>
     b62:	80 91 e4 01 	lds	r24, 0x01E4
     b66:	86 95       	lsr	r24
     b68:	86 95       	lsr	r24
     b6a:	86 95       	lsr	r24
     b6c:	87 70       	andi	r24, 0x07	; 7
     b6e:	90 91 bb 01 	lds	r25, 0x01BB
		ram.skipNHP += ram.NHP.readlength;
     b72:	89 0f       	add	r24, r25
     b74:	80 93 bb 01 	sts	0x01BB, r24
     b78:	4c cf       	rjmp	.-360    	; 0xa12 <checkNHPControlAddressError>
     b7a:	08 95       	ret

00000b7c <HIDreset>:
	ram.HID.ID = 0;
	ram.HID.recvlength = 0; // just to be sure
	ram.HID.length = 0; // just to be sure
}

void HIDreset(void){
     b7c:	10 92 c6 01 	sts	0x01C6, r1
	// reset any pending HID reports
	ram.HID.ID = 0;
	ram.HID.recvlength = 0; // just to be sure
     b80:	10 92 c8 01 	sts	0x01C8, r1
	ram.HID.length = 0; // just to be sure
     b84:	10 92 c7 01 	sts	0x01C7, r1

	// all reports are empty by default
	memset(&ram.HID.isEmpty, true, sizeof(ram.HID.isEmpty));
     b88:	4a e0       	ldi	r20, 0x0A	; 10
     b8a:	50 e0       	ldi	r21, 0x00	; 0
     b8c:	61 e0       	ldi	r22, 0x01	; 1
     b8e:	70 e0       	ldi	r23, 0x00	; 0
     b90:	8a ed       	ldi	r24, 0xDA	; 218
     b92:	91 e0       	ldi	r25, 0x01	; 1
     b94:	0c 94 53 14 	jmp	0x28a6	; 0x28a6 <memset>

00000b98 <LEDs_TurnOnLEDs>:
     b98:	9b b1       	in	r25, 0x0b	; 11
     b9a:	80 95       	com	r24
     b9c:	89 23       	and	r24, r25
     b9e:	8b b9       	out	0x0b, r24	; 11
     ba0:	08 95       	ret

00000ba2 <LRingBuffer_Remove.constprop.0>:
	 *  \return Next data element stored in the buffer.
	 */
	static inline int LRingBuffer_Remove(LRingBuffer_t* Buffer) ATTR_NON_NULL_PTR_ARG(1);
	static inline int LRingBuffer_Remove(LRingBuffer_t* Buffer)
	{
		GCC_FORCE_POINTER_ACCESS(Buffer);
     ba2:	e6 e3       	ldi	r30, 0x36	; 54
     ba4:	f1 e0       	ldi	r31, 0x01	; 1
			static inline uint_reg_t GetGlobalInterruptMask(void)
			{
				GCC_MEMORY_BARRIER();

				#if (ARCH == ARCH_AVR8)
				return SREG;
     ba6:	5f b7       	in	r21, 0x3f	; 63
			static inline void GlobalInterruptDisable(void)
			{
				GCC_MEMORY_BARRIER();

				#if (ARCH == ARCH_AVR8)
				cli();
     ba8:	f8 94       	cli

		uint_reg_t CurrentGlobalInt = GetGlobalInterruptMask();
		GlobalInterruptDisable();

		// check if buffer is disabled or empty
		if ((Buffer->Base == NULL) || (Buffer->Count == 0)){
     baa:	20 81       	ld	r18, Z
     bac:	31 81       	ldd	r19, Z+1	; 0x01
     bae:	21 15       	cp	r18, r1
     bb0:	31 05       	cpc	r19, r1
     bb2:	19 f0       	breq	.+6      	; 0xbba <LRingBuffer_Remove.constprop.0+0x18>
     bb4:	44 81       	ldd	r20, Z+4	; 0x04
     bb6:	41 11       	cpse	r20, r1
     bb8:	04 c0       	rjmp	.+8      	; 0xbc2 <LRingBuffer_Remove.constprop.0+0x20>
			static inline void SetGlobalInterruptMask(const uint_reg_t GlobalIntState)
			{
				GCC_MEMORY_BARRIER();

				#if (ARCH == ARCH_AVR8)
				SREG = GlobalIntState;
     bba:	5f bf       	out	0x3f, r21	; 63
			SetGlobalInterruptMask(CurrentGlobalInt);
			return -1;
     bbc:	2f ef       	ldi	r18, 0xFF	; 255
     bbe:	3f ef       	ldi	r19, 0xFF	; 255
     bc0:	11 c0       	rjmp	.+34     	; 0xbe4 <LRingBuffer_Remove.constprop.0+0x42>
		}

		// get last item position
		int pos = Buffer->Index - Buffer->Count;
     bc2:	82 81       	ldd	r24, Z+2	; 0x02
     bc4:	90 e0       	ldi	r25, 0x00	; 0
     bc6:	84 1b       	sub	r24, r20
     bc8:	91 09       	sbc	r25, r1
		if (pos < 0)
     bca:	97 ff       	sbrs	r25, 7
     bcc:	03 c0       	rjmp	.+6      	; 0xbd4 <LRingBuffer_Remove.constprop.0+0x32>
			pos = Buffer->Size + pos;
     bce:	63 81       	ldd	r22, Z+3	; 0x03
     bd0:	86 0f       	add	r24, r22
     bd2:	91 1d       	adc	r25, r1

		Data = Buffer->Base[pos];
     bd4:	d9 01       	movw	r26, r18
     bd6:	a8 0f       	add	r26, r24
     bd8:	b9 1f       	adc	r27, r25
     bda:	2c 91       	ld	r18, X
		Buffer->Count--;
     bdc:	41 50       	subi	r20, 0x01	; 1
     bde:	44 83       	std	Z+4, r20	; 0x04
     be0:	5f bf       	out	0x3f, r21	; 63

		SetGlobalInterruptMask(CurrentGlobalInt);

		return Data;
     be2:	30 e0       	ldi	r19, 0x00	; 0
	}
     be4:	c9 01       	movw	r24, r18
     be6:	08 95       	ret

00000be8 <avrispReset>:
//================================================================================
// AVRISP
//================================================================================

void avrispReset(void){
	ram.isp.error = 0;
     be8:	10 92 bd 01 	sts	0x01BD, r1
     bec:	10 92 bc 01 	sts	0x01BC, r1
	ram.isp.pmode = false;
     bf0:	10 92 be 01 	sts	0x01BE, r1
	ram.isp._addr = 0; // just to be sure
     bf4:	10 92 c0 01 	sts	0x01C0, r1
     bf8:	10 92 bf 01 	sts	0x01BF, r1
     bfc:	08 95       	ret

00000bfe <sendCDCbyte>:
}

void sendCDCbyte(uint8_t b){
	//TODO improve this
	// try to send until sucess
	while (CDC_Device_SendByte(&VirtualSerial_CDC_Interface, b) != ENDPOINT_READYWAIT_NoError){
     bfe:	68 2f       	mov	r22, r24
     c00:	80 e1       	ldi	r24, 0x10	; 16
     c02:	91 e0       	ldi	r25, 0x01	; 1
     c04:	0e 94 c4 10 	call	0x2188	; 0x2188 <CDC_Device_SendByte>
     c08:	88 23       	and	r24, r24
     c0a:	e9 f0       	breq	.+58     	; 0xc46 <sendCDCbyte+0x48>
		CDC_Device_USBTask(&VirtualSerial_CDC_Interface);
     c0c:	80 e1       	ldi	r24, 0x10	; 16
     c0e:	91 e0       	ldi	r25, 0x01	; 1
     c10:	0e 94 16 11 	call	0x222c	; 0x222c <CDC_Device_USBTask>
		USB_USBTask();
     c14:	0e 94 83 10 	call	0x2106	; 0x2106 <USB_USBTask>
		while (1){
			// TODO remove this freezing loop!
			LEDs_TurnOnLEDs(LEDS_ERR);
     c18:	80 e1       	ldi	r24, 0x10	; 16
     c1a:	be df       	rcall	.-132    	; 0xb98 <LEDs_TurnOnLEDs>
     c1c:	2f ef       	ldi	r18, 0xFF	; 255
	#else
		//round up by default
		__ticks_dc = (uint32_t)(ceil(fabs(__tmp)));
	#endif

	__builtin_avr_delay_cycles(__ticks_dc);
     c1e:	81 ee       	ldi	r24, 0xE1	; 225
     c20:	94 e0       	ldi	r25, 0x04	; 4
     c22:	21 50       	subi	r18, 0x01	; 1
     c24:	80 40       	sbci	r24, 0x00	; 0
     c26:	90 40       	sbci	r25, 0x00	; 0
     c28:	e1 f7       	brne	.-8      	; 0xc22 <sendCDCbyte+0x24>
     c2a:	00 c0       	rjmp	.+0      	; 0xc2c <sendCDCbyte+0x2e>
     c2c:	00 00       	nop
     c2e:	80 e1       	ldi	r24, 0x10	; 16
			_delay_ms(100);
			LEDs_TurnOnLEDs(LEDS_ERR);
     c30:	b3 df       	rcall	.-154    	; 0xb98 <LEDs_TurnOnLEDs>
     c32:	2f ef       	ldi	r18, 0xFF	; 255
     c34:	81 ee       	ldi	r24, 0xE1	; 225
     c36:	94 e0       	ldi	r25, 0x04	; 4
     c38:	21 50       	subi	r18, 0x01	; 1
     c3a:	80 40       	sbci	r24, 0x00	; 0
     c3c:	90 40       	sbci	r25, 0x00	; 0
     c3e:	e1 f7       	brne	.-8      	; 0xc38 <sendCDCbyte+0x3a>
     c40:	00 c0       	rjmp	.+0      	; 0xc42 <sendCDCbyte+0x44>
     c42:	00 00       	nop
     c44:	e9 cf       	rjmp	.-46     	; 0xc18 <sendCDCbyte+0x1a>
     c46:	08 95       	ret

00000c48 <getch>:
			_delay_ms(100);
		}
	}
}

uint8_t getch() {
     c48:	80 e1       	ldi	r24, 0x10	; 16
     c4a:	91 e0       	ldi	r25, 0x01	; 1
     c4c:	0e 94 2c 11 	call	0x2258	; 0x2258 <CDC_Device_ReceiveByte>
	int16_t ReceivedByte = -1;
	// wait until CDC sends a byte
	while (ReceivedByte < 0)
     c50:	97 fd       	sbrc	r25, 7
     c52:	fa cf       	rjmp	.-12     	; 0xc48 <getch>
		ReceivedByte = CDC_Device_ReceiveByte(&VirtualSerial_CDC_Interface);
	return ReceivedByte;
}
     c54:	08 95       	ret

00000c56 <fill>:

void fill(int n) {
     c56:	ef 92       	push	r14
     c58:	ff 92       	push	r15
     c5a:	0f 93       	push	r16
     c5c:	1f 93       	push	r17
     c5e:	cf 93       	push	r28
     c60:	df 93       	push	r29
     c62:	7c 01       	movw	r14, r24
     c64:	0b e3       	ldi	r16, 0x3B	; 59
     c66:	11 e0       	ldi	r17, 0x01	; 1
	// fill the buffer with the number of bytes passed in from CDC Serial 
	for (int x = 0; x < n; x++)
     c68:	c0 e0       	ldi	r28, 0x00	; 0
     c6a:	d0 e0       	ldi	r29, 0x00	; 0
     c6c:	05 c0       	rjmp	.+10     	; 0xc78 <fill+0x22>
		ram.RingBuffer_Data[x] = getch();
     c6e:	ec df       	rcall	.-40     	; 0xc48 <getch>
     c70:	f8 01       	movw	r30, r16
     c72:	81 93       	st	Z+, r24
     c74:	8f 01       	movw	r16, r30
     c76:	21 96       	adiw	r28, 0x01	; 1
	return ReceivedByte;
}

void fill(int n) {
	// fill the buffer with the number of bytes passed in from CDC Serial 
	for (int x = 0; x < n; x++)
     c78:	ce 15       	cp	r28, r14
     c7a:	df 05       	cpc	r29, r15
     c7c:	c4 f3       	brlt	.-16     	; 0xc6e <fill+0x18>
     c7e:	df 91       	pop	r29
		ram.RingBuffer_Data[x] = getch();
}
     c80:	cf 91       	pop	r28
     c82:	1f 91       	pop	r17
     c84:	0f 91       	pop	r16
     c86:	ff 90       	pop	r15
     c88:	ef 90       	pop	r14
     c8a:	08 95       	ret

00000c8c <set_parameters>:
	default:
		breply(0);
	}
}

void set_parameters(void) {
     c8c:	0f 93       	push	r16
     c8e:	1f 93       	push	r17
     c90:	cf 93       	push	r28
     c92:	df 93       	push	r29
     c94:	cc e0       	ldi	r28, 0x0C	; 12
     c96:	d0 e0       	ldi	r29, 0x00	; 0
	// discard bytes
	for (int i = 0; i < 12; i++)
		getch();
     c98:	d7 df       	rcall	.-82     	; 0xc48 <getch>
     c9a:	21 97       	sbiw	r28, 0x01	; 1
     c9c:	e9 f7       	brne	.-6      	; 0xc98 <set_parameters+0xc>
	}
}

void set_parameters(void) {
	// discard bytes
	for (int i = 0; i < 12; i++)
     c9e:	c4 e0       	ldi	r28, 0x04	; 4
     ca0:	d0 e0       	ldi	r29, 0x00	; 0
     ca2:	06 e3       	ldi	r16, 0x36	; 54
	 *  \param[in]     Data    Data element to insert into the buffer.
	 */
	static inline void LRingBuffer_Insert(LRingBuffer_t* Buffer, const uint8_t Data) ATTR_NON_NULL_PTR_ARG(1);
	static inline void LRingBuffer_Insert(LRingBuffer_t* Buffer, const uint8_t Data)
	{
		GCC_FORCE_POINTER_ACCESS(Buffer);
     ca4:	11 e0       	ldi	r17, 0x01	; 1
     ca6:	d0 df       	rcall	.-96     	; 0xc48 <getch>
	//param.flashpoll = buff[8];
	// ignore buff[9] (= buff[8])
	// following are 16 bits (big endian)

	for (int i = 0; i < 4; i++)
		LRingBuffer_Insert(&ram.RingBuffer, getch());
     ca8:	f8 01       	movw	r30, r16
     caa:	9f b7       	in	r25, 0x3f	; 63
     cac:	f8 94       	cli
			static inline uint_reg_t GetGlobalInterruptMask(void)
			{
				GCC_MEMORY_BARRIER();

				#if (ARCH == ARCH_AVR8)
				return SREG;
     cae:	20 81       	ld	r18, Z
			static inline void GlobalInterruptDisable(void)
			{
				GCC_MEMORY_BARRIER();

				#if (ARCH == ARCH_AVR8)
				cli();
     cb0:	31 81       	ldd	r19, Z+1	; 0x01

		uint_reg_t CurrentGlobalInt = GetGlobalInterruptMask();
		GlobalInterruptDisable();

		// check if buffer is disabled or already full
		if ((Buffer->Base == NULL) || (Buffer->Count == Buffer->Size)){
     cb2:	21 15       	cp	r18, r1
     cb4:	31 05       	cpc	r19, r1
     cb6:	a1 f0       	breq	.+40     	; 0xce0 <set_parameters+0x54>
     cb8:	54 81       	ldd	r21, Z+4	; 0x04
     cba:	43 81       	ldd	r20, Z+3	; 0x03
     cbc:	54 13       	cpse	r21, r20
     cbe:	01 c0       	rjmp	.+2      	; 0xcc2 <set_parameters+0x36>
     cc0:	0f c0       	rjmp	.+30     	; 0xce0 <set_parameters+0x54>
     cc2:	42 81       	ldd	r20, Z+2	; 0x02
     cc4:	d9 01       	movw	r26, r18
			SetGlobalInterruptMask(CurrentGlobalInt);
			return;
		}

		// save new data to the current index and return to its beginning if it reaches the bound
		Buffer->Base[Buffer->Index++] = Data;
     cc6:	a4 0f       	add	r26, r20
     cc8:	b1 1d       	adc	r27, r1
     cca:	8c 93       	st	X, r24
     ccc:	84 2f       	mov	r24, r20
     cce:	8f 5f       	subi	r24, 0xFF	; 255
     cd0:	82 83       	std	Z+2, r24	; 0x02
     cd2:	23 81       	ldd	r18, Z+3	; 0x03
     cd4:	82 13       	cpse	r24, r18
		if (Buffer->Index == Buffer->Size)
     cd6:	01 c0       	rjmp	.+2      	; 0xcda <set_parameters+0x4e>
     cd8:	12 82       	std	Z+2, r1	; 0x02
     cda:	84 81       	ldd	r24, Z+4	; 0x04
			Buffer->Index = 0;
     cdc:	8f 5f       	subi	r24, 0xFF	; 255

		Buffer->Count++;
     cde:	84 83       	std	Z+4, r24	; 0x04
     ce0:	9f bf       	out	0x3f, r25	; 63
     ce2:	21 97       	sbiw	r28, 0x01	; 1
			static inline void SetGlobalInterruptMask(const uint_reg_t GlobalIntState)
			{
				GCC_MEMORY_BARRIER();

				#if (ARCH == ARCH_AVR8)
				SREG = GlobalIntState;
     ce4:	01 f7       	brne	.-64     	; 0xca6 <set_parameters+0x1a>
				  __builtin_csrf(AVR32_SR_GM_OFFSET);
				#elif (ARCH == ARCH_XMEGA)
				SREG = GlobalIntState;
				#endif

				GCC_MEMORY_BARRIER();
     ce6:	86 e3       	ldi	r24, 0x36	; 54
	//param.fusebytes = buff[7];
	//param.flashpoll = buff[8];
	// ignore buff[9] (= buff[8])
	// following are 16 bits (big endian)

	for (int i = 0; i < 4; i++)
     ce8:	91 e0       	ldi	r25, 0x01	; 1
		LRingBuffer_Insert(&ram.RingBuffer, getch());

//#define beget16(addr, addr2) (addr * 256 + addr2 )
	//param.eeprompoll = beget16(&buff[10]);
		ram.isp.param.pagesize = LRingBuffer_Remove(&ram.RingBuffer) * 256 + LRingBuffer_Remove(&ram.RingBuffer);
     cea:	5b df       	rcall	.-330    	; 0xba2 <LRingBuffer_Remove.constprop.0>
     cec:	c8 2f       	mov	r28, r24
     cee:	86 e3       	ldi	r24, 0x36	; 54
     cf0:	91 e0       	ldi	r25, 0x01	; 1
     cf2:	57 df       	rcall	.-338    	; 0xba2 <LRingBuffer_Remove.constprop.0>
     cf4:	3c 2f       	mov	r19, r28
     cf6:	20 e0       	ldi	r18, 0x00	; 0
     cf8:	82 0f       	add	r24, r18
     cfa:	93 1f       	adc	r25, r19
     cfc:	90 93 c2 01 	sts	0x01C2, r25
     d00:	80 93 c1 01 	sts	0x01C1, r24
     d04:	86 e3       	ldi	r24, 0x36	; 54
     d06:	91 e0       	ldi	r25, 0x01	; 1
     d08:	4c df       	rcall	.-360    	; 0xba2 <LRingBuffer_Remove.constprop.0>
     d0a:	c8 2f       	mov	r28, r24
		ram.isp.param.eepromsize = LRingBuffer_Remove(&ram.RingBuffer) * 256 + LRingBuffer_Remove(&ram.RingBuffer);
     d0c:	86 e3       	ldi	r24, 0x36	; 54
     d0e:	91 e0       	ldi	r25, 0x01	; 1
     d10:	48 df       	rcall	.-368    	; 0xba2 <LRingBuffer_Remove.constprop.0>
     d12:	3c 2f       	mov	r19, r28
     d14:	20 e0       	ldi	r18, 0x00	; 0
     d16:	82 0f       	add	r24, r18
     d18:	93 1f       	adc	r25, r19
     d1a:	90 93 c4 01 	sts	0x01C4, r25
     d1e:	80 93 c3 01 	sts	0x01C3, r24
     d22:	92 df       	rcall	.-220    	; 0xc48 <getch>
     d24:	91 df       	rcall	.-222    	; 0xc48 <getch>
     d26:	90 df       	rcall	.-224    	; 0xc48 <getch>
     d28:	df 91       	pop	r29
     d2a:	cf 91       	pop	r28
     d2c:	1f 91       	pop	r17
	//	+ buff[18] * 0x00000100
	//	+ buff[19];

		// discard bytes
	for (int i = 0; i < 4; i++)
		getch();
     d2e:	0f 91       	pop	r16
     d30:	8b cf       	rjmp	.-234    	; 0xc48 <getch>

00000d32 <breply>:
	_delay_ms(30);
	LEDs_TurnOnLEDs(LEDS_PMODE);
}


void breply(uint8_t b) {
     d32:	cf 93       	push	r28
     d34:	c8 2f       	mov	r28, r24
	if (CRC_EOP == getch()) {  // EOP should be next char
     d36:	88 df       	rcall	.-240    	; 0xc48 <getch>
     d38:	80 32       	cpi	r24, 0x20	; 32
	//	+ buff[19];

		// discard bytes
	for (int i = 0; i < 4; i++)
		getch();
}
     d3a:	39 f4       	brne	.+14     	; 0xd4a <breply+0x18>
     d3c:	84 e1       	ldi	r24, 0x14	; 20
}


void breply(uint8_t b) {
	if (CRC_EOP == getch()) {  // EOP should be next char
		sendCDCbyte(STK_INSYNC);
     d3e:	5f df       	rcall	.-322    	; 0xbfe <sendCDCbyte>
     d40:	8c 2f       	mov	r24, r28
	//	+ buff[18] * 0x00000100
	//	+ buff[19];

		// discard bytes
	for (int i = 0; i < 4; i++)
		getch();
     d42:	5d df       	rcall	.-326    	; 0xbfe <sendCDCbyte>


void breply(uint8_t b) {
	if (CRC_EOP == getch()) {  // EOP should be next char
		sendCDCbyte(STK_INSYNC);
		sendCDCbyte(b);
     d44:	80 e1       	ldi	r24, 0x10	; 16
     d46:	cf 91       	pop	r28
     d48:	5a cf       	rjmp	.-332    	; 0xbfe <sendCDCbyte>
		sendCDCbyte(STK_OK);
     d4a:	85 e1       	ldi	r24, 0x15	; 21
	}
	else {
		sendCDCbyte(STK_NOSYNC);
		ram.isp.error++;
	}
}
     d4c:	58 df       	rcall	.-336    	; 0xbfe <sendCDCbyte>

void breply(uint8_t b) {
	if (CRC_EOP == getch()) {  // EOP should be next char
		sendCDCbyte(STK_INSYNC);
		sendCDCbyte(b);
		sendCDCbyte(STK_OK);
     d4e:	80 91 bc 01 	lds	r24, 0x01BC
	}
	else {
		sendCDCbyte(STK_NOSYNC);
     d52:	90 91 bd 01 	lds	r25, 0x01BD
     d56:	01 96       	adiw	r24, 0x01	; 1
		ram.isp.error++;
     d58:	90 93 bd 01 	sts	0x01BD, r25
     d5c:	80 93 bc 01 	sts	0x01BC, r24
     d60:	cf 91       	pop	r28
     d62:	08 95       	ret

00000d64 <get_parameters>:
	for (int x = 0; x < n; x++)
		ram.RingBuffer_Data[x] = getch();
}


void get_parameters(uint8_t c) {
     d64:	81 38       	cpi	r24, 0x81	; 129
     d66:	59 f0       	breq	.+22     	; 0xd7e <get_parameters+0x1a>
     d68:	18 f4       	brcc	.+6      	; 0xd70 <get_parameters+0xc>
	}
	else {
		sendCDCbyte(STK_NOSYNC);
		ram.isp.error++;
	}
}
     d6a:	80 38       	cpi	r24, 0x80	; 128
     d6c:	71 f4       	brne	.+28     	; 0xd8a <get_parameters+0x26>
     d6e:	05 c0       	rjmp	.+10     	; 0xd7a <get_parameters+0x16>
     d70:	82 38       	cpi	r24, 0x82	; 130
     d72:	39 f0       	breq	.+14     	; 0xd82 <get_parameters+0x1e>
     d74:	83 39       	cpi	r24, 0x93	; 147
     d76:	49 f4       	brne	.+18     	; 0xd8a <get_parameters+0x26>
     d78:	06 c0       	rjmp	.+12     	; 0xd86 <get_parameters+0x22>


void get_parameters(uint8_t c) {
	switch (c) {
	case 0x80:
		breply(HWVER);
     d7a:	82 e0       	ldi	r24, 0x02	; 2
     d7c:	07 c0       	rjmp	.+14     	; 0xd8c <get_parameters+0x28>
		break;
	case 0x81:
		breply(SWMAJ);
     d7e:	81 e0       	ldi	r24, 0x01	; 1
     d80:	05 c0       	rjmp	.+10     	; 0xd8c <get_parameters+0x28>
		break;
	case 0x82:
		breply(SWMIN);
     d82:	82 e1       	ldi	r24, 0x12	; 18
     d84:	03 c0       	rjmp	.+6      	; 0xd8c <get_parameters+0x28>
		break;
	case 0x93:
		breply('S'); // serial programmer
     d86:	83 e5       	ldi	r24, 0x53	; 83
     d88:	01 c0       	rjmp	.+2      	; 0xd8c <get_parameters+0x28>
		break;
	default:
		breply(0);
     d8a:	80 e0       	ldi	r24, 0x00	; 0
     d8c:	d2 cf       	rjmp	.-92     	; 0xd32 <breply>

00000d8e <replyOK>:
		sendCDCbyte(STK_NOSYNC);
		ram.isp.error++;
	}
}

void replyOK(void) {
     d8e:	5c df       	rcall	.-328    	; 0xc48 <getch>
     d90:	80 32       	cpi	r24, 0x20	; 32
     d92:	21 f4       	brne	.+8      	; 0xd9c <replyOK+0xe>
     d94:	84 e1       	ldi	r24, 0x14	; 20
	//  if (EOP_SEEN == true) {
	if (CRC_EOP == getch()) {  // EOP should be next char
		sendCDCbyte(STK_INSYNC);
     d96:	33 df       	rcall	.-410    	; 0xbfe <sendCDCbyte>
     d98:	80 e1       	ldi	r24, 0x10	; 16
     d9a:	31 cf       	rjmp	.-414    	; 0xbfe <sendCDCbyte>
		sendCDCbyte(STK_OK);
     d9c:	80 e2       	ldi	r24, 0x20	; 32
     d9e:	fc de       	rcall	.-520    	; 0xb98 <LEDs_TurnOnLEDs>
     da0:	2f ef       	ldi	r18, 0xFF	; 255
	}
	else {
		// signalize Error
		LEDs_TurnOnLEDs(LEDS_PMODE);
     da2:	80 e7       	ldi	r24, 0x70	; 112
     da4:	92 e0       	ldi	r25, 0x02	; 2
     da6:	21 50       	subi	r18, 0x01	; 1
     da8:	80 40       	sbci	r24, 0x00	; 0
     daa:	90 40       	sbci	r25, 0x00	; 0
     dac:	e1 f7       	brne	.-8      	; 0xda6 <replyOK+0x18>
     dae:	00 c0       	rjmp	.+0      	; 0xdb0 <replyOK+0x22>
     db0:	00 00       	nop
     db2:	5d 9a       	sbi	0x0b, 5	; 11
     db4:	2f ef       	ldi	r18, 0xFF	; 255
     db6:	80 e7       	ldi	r24, 0x70	; 112
     db8:	92 e0       	ldi	r25, 0x02	; 2
	}

	static inline void LEDs_TurnOffLEDs(const uint8_t LEDMask)
	{
		PORTD |= LEDMask;
     dba:	21 50       	subi	r18, 0x01	; 1
     dbc:	80 40       	sbci	r24, 0x00	; 0
     dbe:	90 40       	sbci	r25, 0x00	; 0
     dc0:	e1 f7       	brne	.-8      	; 0xdba <replyOK+0x2c>
     dc2:	00 c0       	rjmp	.+0      	; 0xdc4 <replyOK+0x36>
     dc4:	00 00       	nop
     dc6:	80 e2       	ldi	r24, 0x20	; 32
     dc8:	e7 de       	rcall	.-562    	; 0xb98 <LEDs_TurnOnLEDs>
     dca:	2f ef       	ldi	r18, 0xFF	; 255
     dcc:	80 e7       	ldi	r24, 0x70	; 112
		_delay_ms(50);
		LEDs_TurnOffLEDs(LEDS_PMODE);
		_delay_ms(50);
		LEDs_TurnOnLEDs(LEDS_PMODE);
     dce:	92 e0       	ldi	r25, 0x02	; 2
     dd0:	21 50       	subi	r18, 0x01	; 1
     dd2:	80 40       	sbci	r24, 0x00	; 0
     dd4:	90 40       	sbci	r25, 0x00	; 0
     dd6:	e1 f7       	brne	.-8      	; 0xdd0 <replyOK+0x42>
     dd8:	00 c0       	rjmp	.+0      	; 0xdda <replyOK+0x4c>
     dda:	00 00       	nop
     ddc:	5d 9a       	sbi	0x0b, 5	; 11
     dde:	85 e1       	ldi	r24, 0x15	; 21
     de0:	0e df       	rcall	.-484    	; 0xbfe <sendCDCbyte>
     de2:	80 91 bc 01 	lds	r24, 0x01BC
     de6:	90 91 bd 01 	lds	r25, 0x01BD
		_delay_ms(50);
		LEDs_TurnOffLEDs(LEDS_PMODE);

		sendCDCbyte(STK_NOSYNC);
     dea:	01 96       	adiw	r24, 0x01	; 1
     dec:	90 93 bd 01 	sts	0x01BD, r25
		ram.isp.error++;
     df0:	80 93 bc 01 	sts	0x01BC, r24
     df4:	08 95       	ret

00000df6 <end_pmode>:
	// do not write Serial stuff into buffer, we need this ram now
	LRingBuffer_ResetBuffer(&ram.RingBuffer);
	return;
}

void end_pmode(void) {
     df6:	23 98       	cbi	0x04, 3	; 4
	AVR_SPI_DDR &= ~(1 << AVR_MISO); // INPUT
	AVR_SPI_DDR &= ~(1 << AVR_MOSI); // INPUT
     df8:	22 98       	cbi	0x04, 2	; 4
	AVR_SPI_DDR &= ~(1 << AVR_SCK);  // INPUT
     dfa:	21 98       	cbi	0x04, 1	; 4
	AVR_SPI_DDR &= ~(1 << AVR_SS);   // INPUT
     dfc:	24 98       	cbi	0x04, 4	; 4

	// set hardware SS to input so we can use SPI slave mode
	AVR_SPI_DDR &= ~(1 << AVR_HARDWARE_SS); // INPUT
     dfe:	20 98       	cbi	0x04, 0	; 4
	}

	static inline void LRingBuffer_ResetBuffer(LRingBuffer_t* Buffer) ATTR_NON_NULL_PTR_ARG(1);
	static inline void LRingBuffer_ResetBuffer(LRingBuffer_t* Buffer)
	{
		GCC_FORCE_POINTER_ACCESS(Buffer);
     e00:	e6 e3       	ldi	r30, 0x36	; 54
     e02:	f1 e0       	ldi	r31, 0x01	; 1
			static inline uint_reg_t GetGlobalInterruptMask(void)
			{
				GCC_MEMORY_BARRIER();

				#if (ARCH == ARCH_AVR8)
				return SREG;
     e04:	8f b7       	in	r24, 0x3f	; 63
			static inline void GlobalInterruptDisable(void)
			{
				GCC_MEMORY_BARRIER();

				#if (ARCH == ARCH_AVR8)
				cli();
     e06:	f8 94       	cli

		uint_reg_t CurrentGlobalInt = GetGlobalInterruptMask();
		GlobalInterruptDisable();

		// TODO index doesnt really matter
		Buffer->Index = 0;
     e08:	12 82       	std	Z+2, r1	; 0x02
		Buffer->Count = 0;
     e0a:	14 82       	std	Z+4, r1	; 0x04
			static inline void SetGlobalInterruptMask(const uint_reg_t GlobalIntState)
			{
				GCC_MEMORY_BARRIER();

				#if (ARCH == ARCH_AVR8)
				SREG = GlobalIntState;
     e0c:	8f bf       	out	0x3f, r24	; 63

	// release this buffer for Serial again
	LRingBuffer_ResetBuffer(&ram.RingBuffer);

	ram.isp.pmode = false;
     e0e:	10 92 be 01 	sts	0x01BE, r1

	// HID Setup
	HIDreset();
     e12:	b4 de       	rcall	.-664    	; 0xb7c <HIDreset>
     e14:	10 92 bb 01 	sts	0x01BB, r1

	ram.skipNHP = 0;
     e18:	84 ee       	ldi	r24, 0xE4	; 228
	NHPreset(&ram.NHP);
     e1a:	91 e0       	ldi	r25, 0x01	; 1
     e1c:	ff c2       	rjmp	.+1534   	; 0x141c <NHPreset>

00000e1e <spi_init>:
}

void spi_init(void) {
     e1e:	83 e5       	ldi	r24, 0x53	; 83
     e20:	8c bd       	out	0x2c, r24	; 44
	SPCR = 0x53;
#ifdef ISP_LOW_SPEED
	SPCR = SPCR | B00000011;
#endif
	SPSR;
     e22:	8d b5       	in	r24, 0x2d	; 45
	SPDR;
     e24:	8e b5       	in	r24, 0x2e	; 46
     e26:	08 95       	ret

00000e28 <spi_wait>:
	return reply;
}

void spi_wait(void) {
	do {
	} while (!(SPSR & (1 << SPIF)));
     e28:	0d b4       	in	r0, 0x2d	; 45
     e2a:	07 fe       	sbrs	r0, 7
     e2c:	fd cf       	rjmp	.-6      	; 0xe28 <spi_wait>
}
     e2e:	08 95       	ret

00000e30 <spi_send>:
	cli();
	CLKPR = B10000000;
	CLKPR = B00000011;
	sei();
#endif
	SPDR = b;
     e30:	8e bd       	out	0x2e, r24	; 46
	spi_wait();
     e32:	fa df       	rcall	.-12     	; 0xe28 <spi_wait>
     e34:	8e b5       	in	r24, 0x2e	; 46
	reply = SPDR;
     e36:	08 95       	ret

00000e38 <spi_transaction>:
	CLKPR = B10000000;
	CLKPR = B00000000;
	sei();
#endif
	return reply;
}
     e38:	cf 93       	push	r28
     e3a:	df 93       	push	r29
     e3c:	00 d0       	rcall	.+0      	; 0xe3e <spi_transaction+0x6>
     e3e:	1f 92       	push	r1
     e40:	cd b7       	in	r28, 0x3d	; 61
     e42:	de b7       	in	r29, 0x3e	; 62
	SPDR;
}

uint8_t spi_transaction(uint8_t a, uint8_t b, uint8_t c, uint8_t d) {
	//uint8_t n;
	spi_send(a);
     e44:	2b 83       	std	Y+3, r18	; 0x03
     e46:	4a 83       	std	Y+2, r20	; 0x02
     e48:	69 83       	std	Y+1, r22	; 0x01
     e4a:	f2 df       	rcall	.-28     	; 0xe30 <spi_send>
     e4c:	69 81       	ldd	r22, Y+1	; 0x01
	//n = spi_send(b);
	spi_send(b);
     e4e:	86 2f       	mov	r24, r22
     e50:	ef df       	rcall	.-34     	; 0xe30 <spi_send>
     e52:	4a 81       	ldd	r20, Y+2	; 0x02
     e54:	84 2f       	mov	r24, r20
	//if (n != a) error = -1;
	//n = spi_send(c);
	spi_send(c);
     e56:	ec df       	rcall	.-40     	; 0xe30 <spi_send>
     e58:	2b 81       	ldd	r18, Y+3	; 0x03
     e5a:	82 2f       	mov	r24, r18
     e5c:	0f 90       	pop	r0
	return spi_send(d);
     e5e:	0f 90       	pop	r0
     e60:	0f 90       	pop	r0
}
     e62:	df 91       	pop	r29
     e64:	cf 91       	pop	r28
     e66:	e4 cf       	rjmp	.-56     	; 0xe30 <spi_send>

00000e68 <start_pmode>:
		sendCDCbyte(STK_NOSYNC);
		ram.isp.error++;
	}
}

void start_pmode(void) {
     e68:	20 9a       	sbi	0x04, 0	; 4
	//clearHIDReports();


	// set hardware SS to output so we can use SPI master mode
	AVR_SPI_DDR |= (1 << AVR_HARDWARE_SS);
	AVR_SPI_PORT |= (1 << AVR_HARDWARE_SS);
     e6a:	28 9a       	sbi	0x05, 0	; 5
	//n = spi_send(b);
	spi_send(b);
	//if (n != a) error = -1;
	//n = spi_send(c);
	spi_send(c);
	return spi_send(d);
     e6c:	d8 df       	rcall	.-80     	; 0xe1e <spi_init>
     e6e:	24 9a       	sbi	0x04, 4	; 4
	AVR_SPI_PORT |= (1 << AVR_HARDWARE_SS);

	spi_init();

	// following delays may not work on all targets...
	AVR_SPI_DDR |= (1 << AVR_SS); // OUTPUT
     e70:	2c 9a       	sbi	0x05, 4	; 5
	AVR_SPI_PORT |= (1 << AVR_SS); // HIGH
     e72:	21 9a       	sbi	0x04, 1	; 4

	AVR_SPI_DDR |= (1 << AVR_SCK); // OUTPUT
     e74:	29 98       	cbi	0x05, 1	; 5
	AVR_SPI_PORT &= ~(1 << AVR_SCK); // LOW
     e76:	2f ef       	ldi	r18, 0xFF	; 255
     e78:	80 e7       	ldi	r24, 0x70	; 112
     e7a:	92 e0       	ldi	r25, 0x02	; 2
     e7c:	21 50       	subi	r18, 0x01	; 1
     e7e:	80 40       	sbci	r24, 0x00	; 0
     e80:	90 40       	sbci	r25, 0x00	; 0
     e82:	e1 f7       	brne	.-8      	; 0xe7c <start_pmode+0x14>
     e84:	00 c0       	rjmp	.+0      	; 0xe86 <start_pmode+0x1e>
     e86:	00 00       	nop
     e88:	2c 98       	cbi	0x05, 4	; 5
	_delay_ms(50 + EXTRA_SPI_DELAY);

	AVR_SPI_PORT &= ~(1 << AVR_SS); // LOW
     e8a:	2f ef       	ldi	r18, 0xFF	; 255
     e8c:	80 e7       	ldi	r24, 0x70	; 112
     e8e:	92 e0       	ldi	r25, 0x02	; 2
     e90:	21 50       	subi	r18, 0x01	; 1
     e92:	80 40       	sbci	r24, 0x00	; 0
     e94:	90 40       	sbci	r25, 0x00	; 0
     e96:	e1 f7       	brne	.-8      	; 0xe90 <start_pmode+0x28>
     e98:	00 c0       	rjmp	.+0      	; 0xe9a <start_pmode+0x32>
     e9a:	00 00       	nop
     e9c:	23 98       	cbi	0x04, 3	; 4

	_delay_ms(50 + EXTRA_SPI_DELAY); // extra delay added from adafruit <--
	AVR_SPI_DDR &= ~(1 << AVR_MISO); // INPUT
     e9e:	22 9a       	sbi	0x04, 2	; 4
	AVR_SPI_DDR |= (1 << AVR_MOSI); // OUTPUT
     ea0:	20 e0       	ldi	r18, 0x00	; 0

	spi_transaction(0xAC, 0x53, 0x00, 0x00);
     ea2:	40 e0       	ldi	r20, 0x00	; 0
     ea4:	63 e5       	ldi	r22, 0x53	; 83
     ea6:	8c ea       	ldi	r24, 0xAC	; 172
     ea8:	c7 df       	rcall	.-114    	; 0xe38 <spi_transaction>
     eaa:	81 e0       	ldi	r24, 0x01	; 1
     eac:	80 93 be 01 	sts	0x01BE, r24
	ram.isp.pmode = true;
     eb0:	e6 e3       	ldi	r30, 0x36	; 54
     eb2:	f1 e0       	ldi	r31, 0x01	; 1
	}

	static inline void LRingBuffer_ResetBuffer(LRingBuffer_t* Buffer) ATTR_NON_NULL_PTR_ARG(1);
	static inline void LRingBuffer_ResetBuffer(LRingBuffer_t* Buffer)
	{
		GCC_FORCE_POINTER_ACCESS(Buffer);
     eb4:	8f b7       	in	r24, 0x3f	; 63
     eb6:	f8 94       	cli
			static inline uint_reg_t GetGlobalInterruptMask(void)
			{
				GCC_MEMORY_BARRIER();

				#if (ARCH == ARCH_AVR8)
				return SREG;
     eb8:	12 82       	std	Z+2, r1	; 0x02
			static inline void GlobalInterruptDisable(void)
			{
				GCC_MEMORY_BARRIER();

				#if (ARCH == ARCH_AVR8)
				cli();
     eba:	14 82       	std	Z+4, r1	; 0x04

		uint_reg_t CurrentGlobalInt = GetGlobalInterruptMask();
		GlobalInterruptDisable();

		// TODO index doesnt really matter
		Buffer->Index = 0;
     ebc:	8f bf       	out	0x3f, r24	; 63
		Buffer->Count = 0;
     ebe:	08 95       	ret

00000ec0 <commit>:
			static inline void SetGlobalInterruptMask(const uint_reg_t GlobalIntState)
			{
				GCC_MEMORY_BARRIER();

				#if (ARCH == ARCH_AVR8)
				SREG = GlobalIntState;
     ec0:	5d 9a       	sbi	0x0b, 5	; 11
				  __builtin_csrf(AVR32_SR_GM_OFFSET);
				#elif (ARCH == ARCH_XMEGA)
				SREG = GlobalIntState;
				#endif

				GCC_MEMORY_BARRIER();
     ec2:	20 e0       	ldi	r18, 0x00	; 0
     ec4:	48 2f       	mov	r20, r24
     ec6:	69 2f       	mov	r22, r25
     ec8:	8c e4       	ldi	r24, 0x4C	; 76
     eca:	b6 df       	rcall	.-148    	; 0xe38 <spi_transaction>
     ecc:	2f ef       	ldi	r18, 0xFF	; 255
     ece:	86 e7       	ldi	r24, 0x76	; 118
     ed0:	91 e0       	ldi	r25, 0x01	; 1
     ed2:	21 50       	subi	r18, 0x01	; 1
     ed4:	80 40       	sbci	r24, 0x00	; 0
     ed6:	90 40       	sbci	r25, 0x00	; 0
     ed8:	e1 f7       	brne	.-8      	; 0xed2 <commit+0x12>
     eda:	00 c0       	rjmp	.+0      	; 0xedc <commit+0x1c>
     edc:	00 00       	nop
     ede:	80 e2       	ldi	r24, 0x20	; 32

void commit(int addr) {
	LEDs_TurnOffLEDs(LEDS_PMODE);
	spi_transaction(0x4C, (addr >> 8) & 0xFF, addr & 0xFF, 0);
	_delay_ms(30);
	LEDs_TurnOnLEDs(LEDS_PMODE);
     ee0:	5b ce       	rjmp	.-842    	; 0xb98 <LEDs_TurnOnLEDs>

00000ee2 <read_signature>:
	fill(4);
	ch = spi_transaction(ram.RingBuffer_Data[0], ram.RingBuffer_Data[1], ram.RingBuffer_Data[2], ram.RingBuffer_Data[3]);
	breply(ch);
}

void read_signature(void) {
     ee2:	b2 de       	rcall	.-668    	; 0xc48 <getch>
     ee4:	80 32       	cpi	r24, 0x20	; 32
     ee6:	59 f0       	breq	.+22     	; 0xefe <read_signature+0x1c>
     ee8:	80 91 bc 01 	lds	r24, 0x01BC
	if (CRC_EOP != getch()) {
		ram.isp.error++;
     eec:	90 91 bd 01 	lds	r25, 0x01BD
     ef0:	01 96       	adiw	r24, 0x01	; 1
     ef2:	90 93 bd 01 	sts	0x01BD, r25
     ef6:	80 93 bc 01 	sts	0x01BC, r24
     efa:	85 e1       	ldi	r24, 0x15	; 21
		sendCDCbyte(STK_NOSYNC);
     efc:	15 c0       	rjmp	.+42     	; 0xf28 <read_signature+0x46>
     efe:	84 e1       	ldi	r24, 0x14	; 20
		return;
	}
	sendCDCbyte(STK_INSYNC);
     f00:	7e de       	rcall	.-772    	; 0xbfe <sendCDCbyte>
     f02:	20 e0       	ldi	r18, 0x00	; 0
     f04:	40 e0       	ldi	r20, 0x00	; 0
	uint8_t high = spi_transaction(0x30, 0x00, 0x00, 0x00);
     f06:	60 e0       	ldi	r22, 0x00	; 0
     f08:	80 e3       	ldi	r24, 0x30	; 48
     f0a:	96 df       	rcall	.-212    	; 0xe38 <spi_transaction>
     f0c:	78 de       	rcall	.-784    	; 0xbfe <sendCDCbyte>
     f0e:	20 e0       	ldi	r18, 0x00	; 0
     f10:	41 e0       	ldi	r20, 0x01	; 1
	sendCDCbyte(high);
     f12:	60 e0       	ldi	r22, 0x00	; 0
     f14:	80 e3       	ldi	r24, 0x30	; 48
	uint8_t middle = spi_transaction(0x30, 0x00, 0x01, 0x00);
     f16:	90 df       	rcall	.-224    	; 0xe38 <spi_transaction>
     f18:	72 de       	rcall	.-796    	; 0xbfe <sendCDCbyte>
     f1a:	20 e0       	ldi	r18, 0x00	; 0
     f1c:	42 e0       	ldi	r20, 0x02	; 2
     f1e:	60 e0       	ldi	r22, 0x00	; 0
     f20:	80 e3       	ldi	r24, 0x30	; 48
	sendCDCbyte(middle);
     f22:	8a df       	rcall	.-236    	; 0xe38 <spi_transaction>
     f24:	6c de       	rcall	.-808    	; 0xbfe <sendCDCbyte>
	uint8_t low = spi_transaction(0x30, 0x00, 0x02, 0x00);
     f26:	80 e1       	ldi	r24, 0x10	; 16
     f28:	6a ce       	rjmp	.-812    	; 0xbfe <sendCDCbyte>

00000f2a <universal>:
		// discard bytes
	for (int i = 0; i < 4; i++)
		getch();
}

void universal(void) {
     f2a:	84 e0       	ldi	r24, 0x04	; 4
     f2c:	90 e0       	ldi	r25, 0x00	; 0
     f2e:	93 de       	rcall	.-730    	; 0xc56 <fill>
     f30:	20 91 3e 01 	lds	r18, 0x013E
	uint8_t high = spi_transaction(0x30, 0x00, 0x00, 0x00);
	sendCDCbyte(high);
	uint8_t middle = spi_transaction(0x30, 0x00, 0x01, 0x00);
	sendCDCbyte(middle);
	uint8_t low = spi_transaction(0x30, 0x00, 0x02, 0x00);
	sendCDCbyte(low);
     f34:	40 91 3d 01 	lds	r20, 0x013D
	sendCDCbyte(STK_OK);
     f38:	60 91 3c 01 	lds	r22, 0x013C
     f3c:	80 91 3b 01 	lds	r24, 0x013B
     f40:	7b df       	rcall	.-266    	; 0xe38 <spi_transaction>
     f42:	f7 ce       	rjmp	.-530    	; 0xd32 <breply>

00000f44 <flash>:
void spi_wait(void) {
	do {
	} while (!(SPSR & (1 << SPIF)));
}

void flash(uint8_t hilo, int addr, uint8_t data) {
     f44:	96 2f       	mov	r25, r22
void universal(void) {
	uint8_t ch;

	fill(4);
	ch = spi_transaction(ram.RingBuffer_Data[0], ram.RingBuffer_Data[1], ram.RingBuffer_Data[2], ram.RingBuffer_Data[3]);
	breply(ch);
     f46:	67 2f       	mov	r22, r23
     f48:	24 2f       	mov	r18, r20
	do {
	} while (!(SPSR & (1 << SPIF)));
}

void flash(uint8_t hilo, int addr, uint8_t data) {
	spi_transaction(0x40 + 8 * hilo,
     f4a:	88 0f       	add	r24, r24
     f4c:	88 0f       	add	r24, r24
     f4e:	88 0f       	add	r24, r24
     f50:	49 2f       	mov	r20, r25
     f52:	80 5c       	subi	r24, 0xC0	; 192
     f54:	71 cf       	rjmp	.-286    	; 0xe38 <spi_transaction>

00000f56 <current_page>:
		addr & 0xFF,
		data);
}


int current_page(void) {
     f56:	80 91 c1 01 	lds	r24, 0x01C1
     f5a:	90 91 c2 01 	lds	r25, 0x01C2
     f5e:	20 91 bf 01 	lds	r18, 0x01BF
     f62:	30 91 c0 01 	lds	r19, 0x01C0
     f66:	80 32       	cpi	r24, 0x20	; 32
     f68:	91 05       	cpc	r25, r1
     f6a:	11 f4       	brne	.+4      	; 0xf70 <current_page+0x1a>
	// TODO input useless??
	if (ram.isp.param.pagesize == 32)  return ram.isp._addr & 0xFFFFFFF0;
     f6c:	20 7f       	andi	r18, 0xF0	; 240
     f6e:	0e c0       	rjmp	.+28     	; 0xf8c <current_page+0x36>
	if (ram.isp.param.pagesize == 64)  return ram.isp._addr & 0xFFFFFFE0;
     f70:	80 34       	cpi	r24, 0x40	; 64
     f72:	91 05       	cpc	r25, r1
     f74:	11 f4       	brne	.+4      	; 0xf7a <current_page+0x24>
     f76:	20 7e       	andi	r18, 0xE0	; 224
     f78:	09 c0       	rjmp	.+18     	; 0xf8c <current_page+0x36>
	if (ram.isp.param.pagesize == 128) return ram.isp._addr & 0xFFFFFFC0;
     f7a:	80 38       	cpi	r24, 0x80	; 128
     f7c:	91 05       	cpc	r25, r1
     f7e:	11 f4       	brne	.+4      	; 0xf84 <current_page+0x2e>
     f80:	20 7c       	andi	r18, 0xC0	; 192
     f82:	04 c0       	rjmp	.+8      	; 0xf8c <current_page+0x36>
	if (ram.isp.param.pagesize == 256) return ram.isp._addr & 0xFFFFFF80;
     f84:	81 15       	cp	r24, r1
     f86:	91 40       	sbci	r25, 0x01	; 1
     f88:	09 f4       	brne	.+2      	; 0xf8c <current_page+0x36>
     f8a:	20 78       	andi	r18, 0x80	; 128
	return ram.isp._addr;
}
     f8c:	c9 01       	movw	r24, r18
     f8e:	08 95       	ret

00000f90 <flash_read>:
	return STK_OK;
}



uint8_t flash_read(uint8_t hilo, int addr) {
     f90:	46 2f       	mov	r20, r22
	return spi_transaction(0x20 + hilo * 8,
     f92:	88 0f       	add	r24, r24
     f94:	88 0f       	add	r24, r24
     f96:	88 0f       	add	r24, r24
     f98:	20 e0       	ldi	r18, 0x00	; 0
     f9a:	67 2f       	mov	r22, r23
     f9c:	80 5e       	subi	r24, 0xE0	; 224
     f9e:	4c cf       	rjmp	.-360    	; 0xe38 <spi_transaction>

00000fa0 <flash_read_page>:
	sendCDCbyte(result);
	return;
}


char flash_read_page(int length) {
     fa0:	0f 93       	push	r16
     fa2:	1f 93       	push	r17
     fa4:	cf 93       	push	r28
     fa6:	df 93       	push	r29
     fa8:	8c 01       	movw	r16, r24
	for (int x = 0; x < length; x += 2) {
     faa:	c0 e0       	ldi	r28, 0x00	; 0
     fac:	d0 e0       	ldi	r29, 0x00	; 0
     fae:	19 c0       	rjmp	.+50     	; 0xfe2 <flash_read_page+0x42>
		uint8_t low = flash_read(LOW, ram.isp._addr);
     fb0:	60 91 bf 01 	lds	r22, 0x01BF
     fb4:	70 91 c0 01 	lds	r23, 0x01C0
     fb8:	80 e0       	ldi	r24, 0x00	; 0
     fba:	ea df       	rcall	.-44     	; 0xf90 <flash_read>
     fbc:	20 de       	rcall	.-960    	; 0xbfe <sendCDCbyte>
		sendCDCbyte(low);
     fbe:	60 91 bf 01 	lds	r22, 0x01BF
		uint8_t high = flash_read(HIGH, ram.isp._addr);
     fc2:	70 91 c0 01 	lds	r23, 0x01C0
     fc6:	81 e0       	ldi	r24, 0x01	; 1
     fc8:	e3 df       	rcall	.-58     	; 0xf90 <flash_read>
     fca:	19 de       	rcall	.-974    	; 0xbfe <sendCDCbyte>
     fcc:	20 91 bf 01 	lds	r18, 0x01BF
		sendCDCbyte(high);
     fd0:	30 91 c0 01 	lds	r19, 0x01C0
		ram.isp._addr++;
     fd4:	2f 5f       	subi	r18, 0xFF	; 255
     fd6:	3f 4f       	sbci	r19, 0xFF	; 255
     fd8:	30 93 c0 01 	sts	0x01C0, r19
     fdc:	20 93 bf 01 	sts	0x01BF, r18
     fe0:	22 96       	adiw	r28, 0x02	; 2
     fe2:	c0 17       	cp	r28, r16
     fe4:	d1 07       	cpc	r29, r17
     fe6:	24 f3       	brlt	.-56     	; 0xfb0 <flash_read_page+0x10>
	return;
}


char flash_read_page(int length) {
	for (int x = 0; x < length; x += 2) {
     fe8:	80 e1       	ldi	r24, 0x10	; 16
     fea:	df 91       	pop	r29
     fec:	cf 91       	pop	r28
     fee:	1f 91       	pop	r17
		uint8_t high = flash_read(HIGH, ram.isp._addr);
		sendCDCbyte(high);
		ram.isp._addr++;
	}
	return STK_OK;
}
     ff0:	0f 91       	pop	r16
     ff2:	08 95       	ret

00000ff4 <eeprom_read_page>:
		(addr >> 8) & 0xFF,
		addr & 0xFF,
		0);
}

char eeprom_read_page(int length) {
     ff4:	ef 92       	push	r14
     ff6:	ff 92       	push	r15
     ff8:	0f 93       	push	r16
     ffa:	1f 93       	push	r17
     ffc:	cf 93       	push	r28
     ffe:	df 93       	push	r29
    1000:	7c 01       	movw	r14, r24
	// TODO comapre with ada
	// here again we have a word address
	int start = ram.isp._addr * 2;
    1002:	00 91 bf 01 	lds	r16, 0x01BF
    1006:	10 91 c0 01 	lds	r17, 0x01C0
    100a:	00 0f       	add	r16, r16
    100c:	11 1f       	adc	r17, r17
	for (int x = 0; x < length; x++) {
    100e:	e8 01       	movw	r28, r16
    1010:	07 c0       	rjmp	.+14     	; 0x1020 <eeprom_read_page+0x2c>
		int addr = start + x;
		uint8_t ee = spi_transaction(0xA0, (addr >> 8) & 0xFF, addr & 0xFF, 0xFF);
    1012:	2f ef       	ldi	r18, 0xFF	; 255
    1014:	4c 2f       	mov	r20, r28
    1016:	6d 2f       	mov	r22, r29
    1018:	80 ea       	ldi	r24, 0xA0	; 160
    101a:	0e df       	rcall	.-484    	; 0xe38 <spi_transaction>
    101c:	f0 dd       	rcall	.-1056   	; 0xbfe <sendCDCbyte>
		sendCDCbyte(ee);
    101e:	21 96       	adiw	r28, 0x01	; 1
    1020:	ce 01       	movw	r24, r28
    1022:	80 1b       	sub	r24, r16
		(addr >> 8) & 0xFF,
		addr & 0xFF,
		0);
}

char eeprom_read_page(int length) {
    1024:	91 0b       	sbc	r25, r17
    1026:	8e 15       	cp	r24, r14
    1028:	9f 05       	cpc	r25, r15
	// TODO comapre with ada
	// here again we have a word address
	int start = ram.isp._addr * 2;
	for (int x = 0; x < length; x++) {
    102a:	9c f3       	brlt	.-26     	; 0x1012 <eeprom_read_page+0x1e>
    102c:	80 e1       	ldi	r24, 0x10	; 16
    102e:	df 91       	pop	r29
		int addr = start + x;
		uint8_t ee = spi_transaction(0xA0, (addr >> 8) & 0xFF, addr & 0xFF, 0xFF);
		sendCDCbyte(ee);
	}
	return STK_OK;
}
    1030:	cf 91       	pop	r28
    1032:	1f 91       	pop	r17
    1034:	0f 91       	pop	r16
    1036:	ff 90       	pop	r15
    1038:	ef 90       	pop	r14
    103a:	08 95       	ret

0000103c <read_page>:
	if (ram.isp.param.pagesize == 256) return ram.isp._addr & 0xFFFFFF80;
	return ram.isp._addr;
}


void read_page(void) {
    103c:	1f 93       	push	r17
    103e:	cf 93       	push	r28
    1040:	df 93       	push	r29
	char result = (char)STK_FAILED;
	int length = 256 * getch();
    1042:	02 de       	rcall	.-1020   	; 0xc48 <getch>
    1044:	d8 2f       	mov	r29, r24
    1046:	00 de       	rcall	.-1024   	; 0xc48 <getch>
	length += getch();
    1048:	c8 2f       	mov	r28, r24
    104a:	fe dd       	rcall	.-1028   	; 0xc48 <getch>
    104c:	18 2f       	mov	r17, r24
	char memtype = getch();
    104e:	fc dd       	rcall	.-1032   	; 0xc48 <getch>
    1050:	80 32       	cpi	r24, 0x20	; 32
    1052:	59 f0       	breq	.+22     	; 0x106a <read_page+0x2e>
	if (CRC_EOP != getch()) {
    1054:	80 91 bc 01 	lds	r24, 0x01BC
    1058:	90 91 bd 01 	lds	r25, 0x01BD
		ram.isp.error++;
    105c:	01 96       	adiw	r24, 0x01	; 1
    105e:	90 93 bd 01 	sts	0x01BD, r25
    1062:	80 93 bc 01 	sts	0x01BC, r24
    1066:	85 e1       	ldi	r24, 0x15	; 21
    1068:	13 c0       	rjmp	.+38     	; 0x1090 <read_page+0x54>
    106a:	3d 2f       	mov	r19, r29
    106c:	20 e0       	ldi	r18, 0x00	; 0
		sendCDCbyte(STK_NOSYNC);
    106e:	c9 01       	movw	r24, r18
    1070:	8c 0f       	add	r24, r28
}


void read_page(void) {
	char result = (char)STK_FAILED;
	int length = 256 * getch();
    1072:	91 1d       	adc	r25, r1
    1074:	ec 01       	movw	r28, r24
	length += getch();
    1076:	84 e1       	ldi	r24, 0x14	; 20
    1078:	c2 dd       	rcall	.-1148   	; 0xbfe <sendCDCbyte>
    107a:	16 34       	cpi	r17, 0x46	; 70
    107c:	19 f4       	brne	.+6      	; 0x1084 <read_page+0x48>
	if (CRC_EOP != getch()) {
		ram.isp.error++;
		sendCDCbyte(STK_NOSYNC);
		return;
	}
	sendCDCbyte(STK_INSYNC);
    107e:	ce 01       	movw	r24, r28
    1080:	8f df       	rcall	.-226    	; 0xfa0 <flash_read_page>
    1082:	06 c0       	rjmp	.+12     	; 0x1090 <read_page+0x54>
	if (memtype == 'F') result = flash_read_page(length);
    1084:	15 34       	cpi	r17, 0x45	; 69
    1086:	19 f4       	brne	.+6      	; 0x108e <read_page+0x52>
    1088:	ce 01       	movw	r24, r28
    108a:	b4 df       	rcall	.-152    	; 0xff4 <eeprom_read_page>
    108c:	01 c0       	rjmp	.+2      	; 0x1090 <read_page+0x54>
    108e:	81 e1       	ldi	r24, 0x11	; 17
	if (memtype == 'E') result = eeprom_read_page(length);
    1090:	df 91       	pop	r29
    1092:	cf 91       	pop	r28
    1094:	1f 91       	pop	r17
    1096:	b3 cd       	rjmp	.-1178   	; 0xbfe <sendCDCbyte>

00001098 <write_flash_chunk>:
	write_flash_chunk(start, remaining);
	return STK_OK;

}

uint8_t write_flash_chunk(int start, int length) {
    1098:	cf 92       	push	r12
    109a:	df 92       	push	r13
	return ram.isp._addr;
}


void read_page(void) {
	char result = (char)STK_FAILED;
    109c:	ef 92       	push	r14
	sendCDCbyte(STK_INSYNC);
	if (memtype == 'F') result = flash_read_page(length);
	if (memtype == 'E') result = eeprom_read_page(length);
	sendCDCbyte(result);
	return;
}
    109e:	ff 92       	push	r15
    10a0:	0f 93       	push	r16
    10a2:	1f 93       	push	r17
		return;
	}
	sendCDCbyte(STK_INSYNC);
	if (memtype == 'F') result = flash_read_page(length);
	if (memtype == 'E') result = eeprom_read_page(length);
	sendCDCbyte(result);
    10a4:	cf 93       	push	r28
    10a6:	df 93       	push	r29
    10a8:	7b 01       	movw	r14, r22
}

uint8_t write_flash_chunk(int start, int length) {
	// this writes byte-by-byte,
	// page writing may be faster (4 bytes at a time)
	fill(length);
    10aa:	cb 01       	movw	r24, r22
    10ac:	d4 dd       	rcall	.-1112   	; 0xc56 <fill>
    10ae:	53 df       	rcall	.-346    	; 0xf56 <current_page>
	int x = 0;
	int page = current_page();
    10b0:	8c 01       	movw	r16, r24
    10b2:	c0 e0       	ldi	r28, 0x00	; 0
    10b4:	d0 e0       	ldi	r29, 0x00	; 0

uint8_t write_flash_chunk(int start, int length) {
	// this writes byte-by-byte,
	// page writing may be faster (4 bytes at a time)
	fill(length);
	int x = 0;
    10b6:	29 c0       	rjmp	.+82     	; 0x110a <write_flash_chunk+0x72>
    10b8:	4e df       	rcall	.-356    	; 0xf56 <current_page>
	int page = current_page();
	while (x < length) {
    10ba:	08 17       	cp	r16, r24
		if (page != current_page()) {
    10bc:	19 07       	cpc	r17, r25
    10be:	21 f0       	breq	.+8      	; 0x10c8 <write_flash_chunk+0x30>
    10c0:	c8 01       	movw	r24, r16
    10c2:	fe de       	rcall	.-516    	; 0xec0 <commit>
    10c4:	48 df       	rcall	.-368    	; 0xf56 <current_page>
			commit(page);
    10c6:	8c 01       	movw	r16, r24
    10c8:	96 e3       	ldi	r25, 0x36	; 54
    10ca:	c9 2e       	mov	r12, r25
			page = current_page();
    10cc:	91 e0       	ldi	r25, 0x01	; 1
    10ce:	d9 2e       	mov	r13, r25
    10d0:	cc 0e       	add	r12, r28
	write_flash_chunk(start, remaining);
	return STK_OK;

}

uint8_t write_flash_chunk(int start, int length) {
    10d2:	dd 1e       	adc	r13, r29
    10d4:	60 91 bf 01 	lds	r22, 0x01BF
    10d8:	70 91 c0 01 	lds	r23, 0x01C0
    10dc:	f6 01       	movw	r30, r12
	while (x < length) {
		if (page != current_page()) {
			commit(page);
			page = current_page();
		}
		flash(LOW, ram.isp._addr, ram.RingBuffer_Data[x++]);
    10de:	45 81       	ldd	r20, Z+5	; 0x05
    10e0:	80 e0       	ldi	r24, 0x00	; 0
    10e2:	30 df       	rcall	.-416    	; 0xf44 <flash>
    10e4:	22 96       	adiw	r28, 0x02	; 2
    10e6:	60 91 bf 01 	lds	r22, 0x01BF
    10ea:	70 91 c0 01 	lds	r23, 0x01C0
    10ee:	f6 01       	movw	r30, r12
		flash(HIGH, ram.isp._addr, ram.RingBuffer_Data[x++]);
    10f0:	46 81       	ldd	r20, Z+6	; 0x06
    10f2:	81 e0       	ldi	r24, 0x01	; 1
    10f4:	27 df       	rcall	.-434    	; 0xf44 <flash>
    10f6:	20 91 bf 01 	lds	r18, 0x01BF
    10fa:	30 91 c0 01 	lds	r19, 0x01C0
    10fe:	2f 5f       	subi	r18, 0xFF	; 255
    1100:	3f 4f       	sbci	r19, 0xFF	; 255
    1102:	30 93 c0 01 	sts	0x01C0, r19
		ram.isp._addr++;
    1106:	20 93 bf 01 	sts	0x01BF, r18
    110a:	ce 15       	cp	r28, r14
    110c:	df 05       	cpc	r29, r15
    110e:	a4 f2       	brlt	.-88     	; 0x10b8 <write_flash_chunk+0x20>
    1110:	c8 01       	movw	r24, r16
    1112:	d6 de       	rcall	.-596    	; 0xec0 <commit>
    1114:	80 e1       	ldi	r24, 0x10	; 16
    1116:	df 91       	pop	r29
	// this writes byte-by-byte,
	// page writing may be faster (4 bytes at a time)
	fill(length);
	int x = 0;
	int page = current_page();
	while (x < length) {
    1118:	cf 91       	pop	r28
    111a:	1f 91       	pop	r17
    111c:	0f 91       	pop	r16
		}
		flash(LOW, ram.isp._addr, ram.RingBuffer_Data[x++]);
		flash(HIGH, ram.isp._addr, ram.RingBuffer_Data[x++]);
		ram.isp._addr++;
	}
	commit(page);
    111e:	ff 90       	pop	r15
    1120:	ef 90       	pop	r14
    1122:	df 90       	pop	r13

	return STK_OK;
}
    1124:	cf 90       	pop	r12
    1126:	08 95       	ret

00001128 <write_flash>:
	}
	sendCDCbyte(STK_FAILED);
	return;
}

uint8_t write_flash(int length) {
    1128:	0f 93       	push	r16
    112a:	1f 93       	push	r17
    112c:	cf 93       	push	r28
    112e:	df 93       	push	r29
	// here is a word address, get the byte address
	int start = ram.isp._addr * 2;
    1130:	c0 91 bf 01 	lds	r28, 0x01BF
    1134:	d0 91 c0 01 	lds	r29, 0x01C0
    1138:	cc 0f       	add	r28, r28
    113a:	dd 1f       	adc	r29, r29
	int remaining = length;
    113c:	8c 01       	movw	r16, r24
	//if (length > ram.isp.param.flashsize) {
	//	ram.isp.error++;
	//	return STK_FAILED;
	//}

	while (remaining > sizeof(ram.RingBuffer_Data)) {
    113e:	08 c0       	rjmp	.+16     	; 0x1150 <write_flash+0x28>
		write_flash_chunk(start, sizeof(ram.RingBuffer_Data));
    1140:	60 e8       	ldi	r22, 0x80	; 128
    1142:	70 e0       	ldi	r23, 0x00	; 0
    1144:	ce 01       	movw	r24, r28
    1146:	a8 df       	rcall	.-176    	; 0x1098 <write_flash_chunk>
    1148:	c0 58       	subi	r28, 0x80	; 128
	}
	sendCDCbyte(STK_FAILED);
	return;
}

uint8_t write_flash(int length) {
    114a:	df 4f       	sbci	r29, 0xFF	; 255
    114c:	00 58       	subi	r16, 0x80	; 128
    114e:	11 09       	sbc	r17, r1
    1150:	01 38       	cpi	r16, 0x81	; 129
	//if (length > ram.isp.param.flashsize) {
	//	ram.isp.error++;
	//	return STK_FAILED;
	//}

	while (remaining > sizeof(ram.RingBuffer_Data)) {
    1152:	11 05       	cpc	r17, r1
    1154:	a8 f7       	brcc	.-22     	; 0x1140 <write_flash+0x18>
    1156:	b8 01       	movw	r22, r16
		write_flash_chunk(start, sizeof(ram.RingBuffer_Data));
		start += sizeof(ram.RingBuffer_Data);
		remaining -= sizeof(ram.RingBuffer_Data);
	}
	write_flash_chunk(start, remaining);
    1158:	ce 01       	movw	r24, r28
    115a:	9e df       	rcall	.-196    	; 0x1098 <write_flash_chunk>
    115c:	80 e1       	ldi	r24, 0x10	; 16
    115e:	df 91       	pop	r29
	return STK_OK;

}
    1160:	cf 91       	pop	r28
    1162:	1f 91       	pop	r17
    1164:	0f 91       	pop	r16
    1166:	08 95       	ret

00001168 <write_eeprom_chunk>:
	}
	write_eeprom_chunk(start, remaining);
	return STK_OK;
}
// write (length) bytes, (start) is a byte address
uint8_t write_eeprom_chunk(int start, int length) {
    1168:	cf 92       	push	r12
    116a:	df 92       	push	r13
    116c:	ef 92       	push	r14
    116e:	ff 92       	push	r15
    1170:	0f 93       	push	r16
    1172:	1f 93       	push	r17
    1174:	cf 93       	push	r28
    1176:	df 93       	push	r29
    1178:	d8 2f       	mov	r29, r24
    117a:	c9 2f       	mov	r28, r25
    117c:	7b 01       	movw	r14, r22
	// this writes byte-by-byte,
	// page writing may be faster (4 bytes at a time)
	fill(length);
    117e:	cb 01       	movw	r24, r22
    1180:	6a dd       	rcall	.-1324   	; 0xc56 <fill>
    1182:	5d 9a       	sbi	0x0b, 5	; 11
    1184:	3b e3       	ldi	r19, 0x3B	; 59
    1186:	c3 2e       	mov	r12, r19
    1188:	31 e0       	ldi	r19, 0x01	; 1
    118a:	d3 2e       	mov	r13, r19
    118c:	0d 2f       	mov	r16, r29
    118e:	1c 2f       	mov	r17, r28
    1190:	e8 01       	movw	r28, r16
    1192:	11 c0       	rjmp	.+34     	; 0x11b6 <write_eeprom_chunk+0x4e>
    1194:	f6 01       	movw	r30, r12
	LEDs_TurnOffLEDs(LEDS_PMODE);
	for (int x = 0; x < length; x++) {
		int addr = start + x;
		spi_transaction(0xC0, (addr >> 8) & 0xFF, addr & 0xFF, ram.RingBuffer_Data[x]);
    1196:	21 91       	ld	r18, Z+
    1198:	6f 01       	movw	r12, r30
    119a:	4c 2f       	mov	r20, r28
    119c:	6d 2f       	mov	r22, r29
    119e:	80 ec       	ldi	r24, 0xC0	; 192
    11a0:	4b de       	rcall	.-874    	; 0xe38 <spi_transaction>
    11a2:	ff e7       	ldi	r31, 0x7F	; 127
    11a4:	22 e3       	ldi	r18, 0x32	; 50
    11a6:	82 e0       	ldi	r24, 0x02	; 2
    11a8:	f1 50       	subi	r31, 0x01	; 1
    11aa:	20 40       	sbci	r18, 0x00	; 0
    11ac:	80 40       	sbci	r24, 0x00	; 0
    11ae:	e1 f7       	brne	.-8      	; 0x11a8 <write_eeprom_chunk+0x40>
    11b0:	00 c0       	rjmp	.+0      	; 0x11b2 <write_eeprom_chunk+0x4a>
    11b2:	00 00       	nop
    11b4:	21 96       	adiw	r28, 0x01	; 1
    11b6:	ce 01       	movw	r24, r28
    11b8:	80 1b       	sub	r24, r16
	}
	write_eeprom_chunk(start, remaining);
	return STK_OK;
}
// write (length) bytes, (start) is a byte address
uint8_t write_eeprom_chunk(int start, int length) {
    11ba:	91 0b       	sbc	r25, r17
    11bc:	8e 15       	cp	r24, r14
    11be:	9f 05       	cpc	r25, r15
	// this writes byte-by-byte,
	// page writing may be faster (4 bytes at a time)
	fill(length);
	LEDs_TurnOffLEDs(LEDS_PMODE);
	for (int x = 0; x < length; x++) {
    11c0:	4c f3       	brlt	.-46     	; 0x1194 <write_eeprom_chunk+0x2c>
    11c2:	80 e2       	ldi	r24, 0x20	; 32
    11c4:	e9 dc       	rcall	.-1582   	; 0xb98 <LEDs_TurnOnLEDs>
		int addr = start + x;
		spi_transaction(0xC0, (addr >> 8) & 0xFF, addr & 0xFF, ram.RingBuffer_Data[x]);
		_delay_ms(45);
	}
	LEDs_TurnOnLEDs(LEDS_PMODE);
    11c6:	80 e1       	ldi	r24, 0x10	; 16
    11c8:	df 91       	pop	r29
    11ca:	cf 91       	pop	r28
	return STK_OK;
}
    11cc:	1f 91       	pop	r17
    11ce:	0f 91       	pop	r16
    11d0:	ff 90       	pop	r15
    11d2:	ef 90       	pop	r14
    11d4:	df 90       	pop	r13
    11d6:	cf 90       	pop	r12
    11d8:	08 95       	ret

000011da <write_eeprom>:
	commit(page);

	return STK_OK;
}

uint8_t write_eeprom(int length) {
    11da:	0f 93       	push	r16
    11dc:	1f 93       	push	r17
    11de:	cf 93       	push	r28
    11e0:	df 93       	push	r29
	// here is a word address, get the byte address
	int start = ram.isp._addr * 2;
    11e2:	c0 91 bf 01 	lds	r28, 0x01BF
    11e6:	d0 91 c0 01 	lds	r29, 0x01C0
	int remaining = length;
	if (length > ram.isp.param.eepromsize) {
    11ea:	20 91 c3 01 	lds	r18, 0x01C3
    11ee:	30 91 c4 01 	lds	r19, 0x01C4
    11f2:	28 17       	cp	r18, r24
    11f4:	39 07       	cpc	r19, r25
    11f6:	24 f0       	brlt	.+8      	; 0x1200 <write_eeprom+0x26>
	return STK_OK;
}

uint8_t write_eeprom(int length) {
	// here is a word address, get the byte address
	int start = ram.isp._addr * 2;
    11f8:	cc 0f       	add	r28, r28
    11fa:	dd 1f       	adc	r29, r29
    11fc:	8c 01       	movw	r16, r24
    11fe:	13 c0       	rjmp	.+38     	; 0x1226 <write_eeprom+0x4c>
	int remaining = length;
	if (length > ram.isp.param.eepromsize) {
		ram.isp.error++;
    1200:	80 91 bc 01 	lds	r24, 0x01BC
    1204:	90 91 bd 01 	lds	r25, 0x01BD
    1208:	01 96       	adiw	r24, 0x01	; 1
    120a:	90 93 bd 01 	sts	0x01BD, r25
    120e:	80 93 bc 01 	sts	0x01BC, r24
		return STK_FAILED;
    1212:	81 e1       	ldi	r24, 0x11	; 17
    1214:	0f c0       	rjmp	.+30     	; 0x1234 <write_eeprom+0x5a>
	}
	while (remaining > sizeof(ram.RingBuffer_Data)) {
		write_eeprom_chunk(start, sizeof(ram.RingBuffer_Data));
    1216:	60 e8       	ldi	r22, 0x80	; 128
    1218:	70 e0       	ldi	r23, 0x00	; 0
    121a:	ce 01       	movw	r24, r28
    121c:	a5 df       	rcall	.-182    	; 0x1168 <write_eeprom_chunk>
    121e:	c0 58       	subi	r28, 0x80	; 128
	commit(page);

	return STK_OK;
}

uint8_t write_eeprom(int length) {
    1220:	df 4f       	sbci	r29, 0xFF	; 255
    1222:	00 58       	subi	r16, 0x80	; 128
    1224:	11 09       	sbc	r17, r1
    1226:	01 38       	cpi	r16, 0x81	; 129
	int remaining = length;
	if (length > ram.isp.param.eepromsize) {
		ram.isp.error++;
		return STK_FAILED;
	}
	while (remaining > sizeof(ram.RingBuffer_Data)) {
    1228:	11 05       	cpc	r17, r1
    122a:	a8 f7       	brcc	.-22     	; 0x1216 <write_eeprom+0x3c>
    122c:	b8 01       	movw	r22, r16
		write_eeprom_chunk(start, sizeof(ram.RingBuffer_Data));
		start += sizeof(ram.RingBuffer_Data);
		remaining -= sizeof(ram.RingBuffer_Data);
	}
	write_eeprom_chunk(start, remaining);
    122e:	ce 01       	movw	r24, r28
    1230:	9b df       	rcall	.-202    	; 0x1168 <write_eeprom_chunk>
    1232:	80 e1       	ldi	r24, 0x10	; 16
    1234:	df 91       	pop	r29
	return STK_OK;
    1236:	cf 91       	pop	r28
}
    1238:	1f 91       	pop	r17
    123a:	0f 91       	pop	r16
    123c:	08 95       	ret

0000123e <program_page>:
	return STK_OK;
}



void program_page(void) {
    123e:	cf 93       	push	r28
    1240:	df 93       	push	r29
	char result = (char)STK_FAILED;
	int length = 256 * getch();
    1242:	02 dd       	rcall	.-1532   	; 0xc48 <getch>
    1244:	d8 2f       	mov	r29, r24
    1246:	80 e0       	ldi	r24, 0x00	; 0
    1248:	c8 2f       	mov	r28, r24
    124a:	fe dc       	rcall	.-1540   	; 0xc48 <getch>
	length += getch();
    124c:	c8 0f       	add	r28, r24
    124e:	d1 1d       	adc	r29, r1
    1250:	fb dc       	rcall	.-1546   	; 0xc48 <getch>
    1252:	86 34       	cpi	r24, 0x46	; 70

	char memtype = getch();
    1254:	19 f4       	brne	.+6      	; 0x125c <program_page+0x1e>
    1256:	ce 01       	movw	r24, r28
	// flash memory @here, (length) bytes
	if (memtype == 'F') {
    1258:	67 df       	rcall	.-306    	; 0x1128 <write_flash>
    125a:	04 c0       	rjmp	.+8      	; 0x1264 <program_page+0x26>
		uint8_t result = write_flash(length);
    125c:	85 34       	cpi	r24, 0x45	; 69
    125e:	a9 f4       	brne	.+42     	; 0x128a <program_page+0x4c>
    1260:	ce 01       	movw	r24, r28
    1262:	bb df       	rcall	.-138    	; 0x11da <write_eeprom>
			sendCDCbyte(STK_NOSYNC);
		}
		return;
	}

	if (memtype == 'E') {
    1264:	c8 2f       	mov	r28, r24
    1266:	f0 dc       	rcall	.-1568   	; 0xc48 <getch>
		result = (char)write_eeprom(length);
    1268:	80 32       	cpi	r24, 0x20	; 32
    126a:	21 f4       	brne	.+8      	; 0x1274 <program_page+0x36>
    126c:	84 e1       	ldi	r24, 0x14	; 20
    126e:	c7 dc       	rcall	.-1650   	; 0xbfe <sendCDCbyte>
		if (CRC_EOP == getch()) {
    1270:	8c 2f       	mov	r24, r28
    1272:	0c c0       	rjmp	.+24     	; 0x128c <program_page+0x4e>
    1274:	80 91 bc 01 	lds	r24, 0x01BC
			sendCDCbyte(STK_INSYNC);
    1278:	90 91 bd 01 	lds	r25, 0x01BD
    127c:	01 96       	adiw	r24, 0x01	; 1
			sendCDCbyte(result);
    127e:	90 93 bd 01 	sts	0x01BD, r25
		}
		else {
			ram.isp.error++;
    1282:	80 93 bc 01 	sts	0x01BC, r24
    1286:	85 e1       	ldi	r24, 0x15	; 21
    1288:	01 c0       	rjmp	.+2      	; 0x128c <program_page+0x4e>
    128a:	81 e1       	ldi	r24, 0x11	; 17
    128c:	df 91       	pop	r29
    128e:	cf 91       	pop	r28
    1290:	b6 cc       	rjmp	.-1684   	; 0xbfe <sendCDCbyte>

00001292 <avrisp>:
	ram.isp.pmode = false;
	ram.isp._addr = 0; // just to be sure
}


void avrisp(int ReceivedByte){
    1292:	cf 93       	push	r28
			sendCDCbyte(STK_INSYNC);
			sendCDCbyte(result);
		}
		else {
			ram.isp.error++;
			sendCDCbyte(STK_NOSYNC);
    1294:	df 93       	push	r29
    1296:	ec 01       	movw	r28, r24
		}
		return;
	}
	sendCDCbyte(STK_FAILED);
    1298:	80 91 be 01 	lds	r24, 0x01BE
	return;
}
    129c:	88 23       	and	r24, r24
			ram.isp.error++;
			sendCDCbyte(STK_NOSYNC);
		}
		return;
	}
	sendCDCbyte(STK_FAILED);
    129e:	19 f0       	breq	.+6      	; 0x12a6 <avrisp+0x14>
}


void avrisp(int ReceivedByte){
	// is pmode active?
	if (ram.isp.pmode) LEDs_TurnOnLEDs(LEDS_PMODE);
    12a0:	80 e2       	ldi	r24, 0x20	; 32
    12a2:	7a dc       	rcall	.-1804   	; 0xb98 <LEDs_TurnOnLEDs>
    12a4:	01 c0       	rjmp	.+2      	; 0x12a8 <avrisp+0x16>
    12a6:	5d 9a       	sbi	0x0b, 5	; 11
    12a8:	80 91 bc 01 	lds	r24, 0x01BC
	else LEDs_TurnOffLEDs(LEDS_PMODE);

	// is there an error?
	if (ram.isp.error) LEDs_TurnOnLEDs(LEDS_ERR);
    12ac:	90 91 bd 01 	lds	r25, 0x01BD
    12b0:	89 2b       	or	r24, r25
    12b2:	19 f0       	breq	.+6      	; 0x12ba <avrisp+0x28>
    12b4:	80 e1       	ldi	r24, 0x10	; 16
    12b6:	70 dc       	rcall	.-1824   	; 0xb98 <LEDs_TurnOnLEDs>
    12b8:	01 c0       	rjmp	.+2      	; 0x12bc <avrisp+0x2a>
    12ba:	5c 9a       	sbi	0x0b, 4	; 11
    12bc:	d7 fd       	sbrc	r29, 7
    12be:	ab c0       	rjmp	.+342    	; 0x1416 <avrisp+0x184>
	else LEDs_TurnOffLEDs(LEDS_ERR);

	// read in bytes from the CDC interface
	if (!(ReceivedByte < 0)){
    12c0:	c1 35       	cpi	r28, 0x51	; 81
    12c2:	d1 05       	cpc	r29, r1
		switch (ReceivedByte) {
    12c4:	09 f4       	brne	.+2      	; 0x12c8 <avrisp+0x36>
    12c6:	82 c0       	rjmp	.+260    	; 0x13cc <avrisp+0x13a>
    12c8:	e4 f4       	brge	.+56     	; 0x1302 <avrisp+0x70>
    12ca:	c1 34       	cpi	r28, 0x41	; 65
    12cc:	d1 05       	cpc	r29, r1
    12ce:	09 f4       	brne	.+2      	; 0x12d2 <avrisp+0x40>
    12d0:	52 c0       	rjmp	.+164    	; 0x1376 <avrisp+0xe4>
    12d2:	54 f4       	brge	.+20     	; 0x12e8 <avrisp+0x56>
    12d4:	c0 33       	cpi	r28, 0x30	; 48
    12d6:	d1 05       	cpc	r29, r1
    12d8:	99 f1       	breq	.+102    	; 0x1340 <avrisp+0xae>
    12da:	c1 33       	cpi	r28, 0x31	; 49
    12dc:	d1 05       	cpc	r29, r1
    12de:	a9 f1       	breq	.+106    	; 0x134a <avrisp+0xb8>
    12e0:	a0 97       	sbiw	r28, 0x20	; 32
    12e2:	09 f0       	breq	.+2      	; 0x12e6 <avrisp+0x54>
    12e4:	86 c0       	rjmp	.+268    	; 0x13f2 <avrisp+0x160>
    12e6:	7b c0       	rjmp	.+246    	; 0x13de <avrisp+0x14c>
    12e8:	c5 34       	cpi	r28, 0x45	; 69
    12ea:	d1 05       	cpc	r29, r1
    12ec:	09 f4       	brne	.+2      	; 0x12f0 <avrisp+0x5e>
    12ee:	4b c0       	rjmp	.+150    	; 0x1386 <avrisp+0xf4>
    12f0:	c0 35       	cpi	r28, 0x50	; 80
    12f2:	d1 05       	cpc	r29, r1
    12f4:	09 f4       	brne	.+2      	; 0x12f8 <avrisp+0x66>
    12f6:	4b c0       	rjmp	.+150    	; 0x138e <avrisp+0xfc>
    12f8:	c2 34       	cpi	r28, 0x42	; 66
    12fa:	d1 05       	cpc	r29, r1
    12fc:	09 f0       	breq	.+2      	; 0x1300 <avrisp+0x6e>
    12fe:	79 c0       	rjmp	.+242    	; 0x13f2 <avrisp+0x160>
    1300:	3e c0       	rjmp	.+124    	; 0x137e <avrisp+0xec>
    1302:	c1 36       	cpi	r28, 0x61	; 97
    1304:	d1 05       	cpc	r29, r1
    1306:	09 f4       	brne	.+2      	; 0x130a <avrisp+0x78>
    1308:	56 c0       	rjmp	.+172    	; 0x13b6 <avrisp+0x124>
    130a:	6c f4       	brge	.+26     	; 0x1326 <avrisp+0x94>
    130c:	c6 35       	cpi	r28, 0x56	; 86
    130e:	d1 05       	cpc	r29, r1
    1310:	09 f4       	brne	.+2      	; 0x1314 <avrisp+0x82>
    1312:	59 c0       	rjmp	.+178    	; 0x13c6 <avrisp+0x134>
    1314:	c0 36       	cpi	r28, 0x60	; 96
    1316:	d1 05       	cpc	r29, r1
    1318:	09 f4       	brne	.+2      	; 0x131c <avrisp+0x8a>
    131a:	4c c0       	rjmp	.+152    	; 0x13b4 <avrisp+0x122>
    131c:	c5 35       	cpi	r28, 0x55	; 85
    131e:	d1 05       	cpc	r29, r1
    1320:	09 f0       	breq	.+2      	; 0x1324 <avrisp+0x92>
    1322:	67 c0       	rjmp	.+206    	; 0x13f2 <avrisp+0x160>
    1324:	36 c0       	rjmp	.+108    	; 0x1392 <avrisp+0x100>
    1326:	c4 37       	cpi	r28, 0x74	; 116
    1328:	d1 05       	cpc	r29, r1
    132a:	09 f4       	brne	.+2      	; 0x132e <avrisp+0x9c>
    132c:	49 c0       	rjmp	.+146    	; 0x13c0 <avrisp+0x12e>
    132e:	c5 37       	cpi	r28, 0x75	; 117
    1330:	d1 05       	cpc	r29, r1
    1332:	09 f4       	brne	.+2      	; 0x1336 <avrisp+0xa4>
    1334:	51 c0       	rjmp	.+162    	; 0x13d8 <avrisp+0x146>
    1336:	c4 36       	cpi	r28, 0x64	; 100
    1338:	d1 05       	cpc	r29, r1
    133a:	09 f0       	breq	.+2      	; 0x133e <avrisp+0xac>
    133c:	5a c0       	rjmp	.+180    	; 0x13f2 <avrisp+0x160>
    133e:	3d c0       	rjmp	.+122    	; 0x13ba <avrisp+0x128>
    1340:	10 92 bd 01 	sts	0x01BD, r1
		case STK_GET_SYNC:
			ram.isp.error = 0;
    1344:	10 92 bc 01 	sts	0x01BC, r1
    1348:	1b c0       	rjmp	.+54     	; 0x1380 <avrisp+0xee>
    134a:	7e dc       	rcall	.-1796   	; 0xc48 <getch>
    134c:	80 32       	cpi	r24, 0x20	; 32
			replyOK();
			break;
		case STK_GET_SIGNON:
			if (getch() == CRC_EOP) {
    134e:	09 f0       	breq	.+2      	; 0x1352 <avrisp+0xc0>
    1350:	62 c0       	rjmp	.+196    	; 0x1416 <avrisp+0x184>
    1352:	84 e1       	ldi	r24, 0x14	; 20
    1354:	54 dc       	rcall	.-1880   	; 0xbfe <sendCDCbyte>
    1356:	81 e4       	ldi	r24, 0x41	; 65
				sendCDCbyte(STK_INSYNC);
    1358:	52 dc       	rcall	.-1884   	; 0xbfe <sendCDCbyte>
    135a:	86 e5       	ldi	r24, 0x56	; 86
    135c:	50 dc       	rcall	.-1888   	; 0xbfe <sendCDCbyte>
				sendCDCbyte('A');
    135e:	82 e5       	ldi	r24, 0x52	; 82
    1360:	4e dc       	rcall	.-1892   	; 0xbfe <sendCDCbyte>
    1362:	80 e2       	ldi	r24, 0x20	; 32
				sendCDCbyte('V');
    1364:	4c dc       	rcall	.-1896   	; 0xbfe <sendCDCbyte>
    1366:	89 e4       	ldi	r24, 0x49	; 73
    1368:	4a dc       	rcall	.-1900   	; 0xbfe <sendCDCbyte>
				sendCDCbyte('R');
    136a:	83 e5       	ldi	r24, 0x53	; 83
    136c:	48 dc       	rcall	.-1904   	; 0xbfe <sendCDCbyte>
    136e:	80 e5       	ldi	r24, 0x50	; 80
				sendCDCbyte(' ');
    1370:	46 dc       	rcall	.-1908   	; 0xbfe <sendCDCbyte>
    1372:	80 e1       	ldi	r24, 0x10	; 16
    1374:	4d c0       	rjmp	.+154    	; 0x1410 <avrisp+0x17e>
				sendCDCbyte('I');
    1376:	68 dc       	rcall	.-1840   	; 0xc48 <getch>
    1378:	df 91       	pop	r29
    137a:	cf 91       	pop	r28
				sendCDCbyte('S');
    137c:	f3 cc       	rjmp	.-1562   	; 0xd64 <get_parameters>
    137e:	86 dc       	rcall	.-1780   	; 0xc8c <set_parameters>
    1380:	df 91       	pop	r29
				sendCDCbyte('P');
    1382:	cf 91       	pop	r28
    1384:	04 cd       	rjmp	.-1528   	; 0xd8e <replyOK>
    1386:	85 e0       	ldi	r24, 0x05	; 5
				sendCDCbyte(STK_OK);
    1388:	90 e0       	ldi	r25, 0x00	; 0
    138a:	65 dc       	rcall	.-1846   	; 0xc56 <fill>
			}
			break;
		case STK_GET_PARM:
			get_parameters(getch());
    138c:	f9 cf       	rjmp	.-14     	; 0x1380 <avrisp+0xee>
    138e:	6c dd       	rcall	.-1320   	; 0xe68 <start_pmode>
			else
				sendCDCbyte(STK_NOSYNC);
		}
	}

}
    1390:	f7 cf       	rjmp	.-18     	; 0x1380 <avrisp+0xee>
    1392:	5a dc       	rcall	.-1868   	; 0xc48 <getch>
				sendCDCbyte('P');
				sendCDCbyte(STK_OK);
			}
			break;
		case STK_GET_PARM:
			get_parameters(getch());
    1394:	c8 2f       	mov	r28, r24
    1396:	d0 e0       	ldi	r29, 0x00	; 0
			break;
		case STK_SET_PARM:
					set_parameters();
    1398:	d0 93 c0 01 	sts	0x01C0, r29
			else
				sendCDCbyte(STK_NOSYNC);
		}
	}

}
    139c:	c0 93 bf 01 	sts	0x01BF, r28
		case STK_GET_PARM:
			get_parameters(getch());
			break;
		case STK_SET_PARM:
					set_parameters();
			replyOK();
    13a0:	53 dc       	rcall	.-1882   	; 0xc48 <getch>
    13a2:	38 2f       	mov	r19, r24
			break;
		case STK_SET_PARM_EXT: // extended parameters - ignore for now
			fill(5);
    13a4:	20 e0       	ldi	r18, 0x00	; 0
    13a6:	2c 0f       	add	r18, r28
    13a8:	3d 1f       	adc	r19, r29
    13aa:	30 93 c0 01 	sts	0x01C0, r19
			replyOK();
			break;

		case STK_PMODE_START:
			start_pmode();
    13ae:	20 93 bf 01 	sts	0x01BF, r18
    13b2:	e6 cf       	rjmp	.-52     	; 0x1380 <avrisp+0xee>
			replyOK();
			break;
		case STK_SET_ADDR:
			ram.isp._addr = getch();
    13b4:	49 dc       	rcall	.-1902   	; 0xc48 <getch>
    13b6:	48 dc       	rcall	.-1904   	; 0xc48 <getch>
    13b8:	e3 cf       	rjmp	.-58     	; 0x1380 <avrisp+0xee>
    13ba:	df 91       	pop	r29
    13bc:	cf 91       	pop	r28
    13be:	3f cf       	rjmp	.-386    	; 0x123e <program_page>
    13c0:	df 91       	pop	r29
    13c2:	cf 91       	pop	r28
			ram.isp._addr += 256 * getch();
    13c4:	3b ce       	rjmp	.-906    	; 0x103c <read_page>
    13c6:	df 91       	pop	r29
    13c8:	cf 91       	pop	r28
    13ca:	af cd       	rjmp	.-1186   	; 0xf2a <universal>
    13cc:	10 92 bd 01 	sts	0x01BD, r1
    13d0:	10 92 bc 01 	sts	0x01BC, r1
    13d4:	10 dd       	rcall	.-1504   	; 0xdf6 <end_pmode>
    13d6:	d4 cf       	rjmp	.-88     	; 0x1380 <avrisp+0xee>
    13d8:	df 91       	pop	r29
			replyOK();
			break;

		case STK_PROG_FLASH:
			//uint8_t low = getch();
			getch();
    13da:	cf 91       	pop	r28
    13dc:	82 cd       	rjmp	.-1276   	; 0xee2 <read_signature>
			getch();
			replyOK();
			break;
		case STK_PROG_DATA:
			//uint8_t data = getch();
			getch();
    13de:	80 91 bc 01 	lds	r24, 0x01BC
    13e2:	90 91 bd 01 	lds	r25, 0x01BD
			else
				sendCDCbyte(STK_NOSYNC);
		}
	}

}
    13e6:	01 96       	adiw	r24, 0x01	; 1
			getch();
			replyOK();
			break;

		case STK_PROG_PAGE:
			program_page();
    13e8:	90 93 bd 01 	sts	0x01BD, r25
			else
				sendCDCbyte(STK_NOSYNC);
		}
	}

}
    13ec:	80 93 bc 01 	sts	0x01BC, r24
		case STK_PROG_PAGE:
			program_page();
			break;

		case STK_READ_PAGE:
			read_page();
    13f0:	0e c0       	rjmp	.+28     	; 0x140e <avrisp+0x17c>
    13f2:	80 91 bc 01 	lds	r24, 0x01BC
			else
				sendCDCbyte(STK_NOSYNC);
		}
	}

}
    13f6:	90 91 bd 01 	lds	r25, 0x01BD
		case STK_READ_PAGE:
			read_page();
			break;

		case STK_UNIVERSAL:
			universal();
    13fa:	01 96       	adiw	r24, 0x01	; 1
			break;
		case STK_PMODE_END:
			ram.isp.error = 0;
    13fc:	90 93 bd 01 	sts	0x01BD, r25
    1400:	80 93 bc 01 	sts	0x01BC, r24
			end_pmode();
    1404:	21 dc       	rcall	.-1982   	; 0xc48 <getch>
    1406:	80 32       	cpi	r24, 0x20	; 32
    1408:	11 f4       	brne	.+4      	; 0x140e <avrisp+0x17c>
			else
				sendCDCbyte(STK_NOSYNC);
		}
	}

}
    140a:	82 e1       	ldi	r24, 0x12	; 18
    140c:	01 c0       	rjmp	.+2      	; 0x1410 <avrisp+0x17e>
			end_pmode();
			replyOK();
			break;

		case STK_READ_SIGN:
			read_signature();
    140e:	85 e1       	ldi	r24, 0x15	; 21
    1410:	df 91       	pop	r29
			break;

			// expecting a command, not CRC_EOP
			// this is how we can get back in sync
		case CRC_EOP:
			ram.isp.error++;
    1412:	cf 91       	pop	r28
    1414:	f4 cb       	rjmp	.-2072   	; 0xbfe <sendCDCbyte>
    1416:	df 91       	pop	r29
    1418:	cf 91       	pop	r28
    141a:	08 95       	ret

0000141c <NHPreset>:
// Read NHP
//================================================================================

void NHPreset(NHP_Data_t* protocol){
	// reset variables
	protocol->reset = true;
    141c:	fc 01       	movw	r30, r24
    141e:	20 81       	ld	r18, Z
	protocol->leadError = false;
    1420:	20 68       	ori	r18, 0x80	; 128
    1422:	2f 7b       	andi	r18, 0xBF	; 191
    1424:	20 83       	st	Z, r18
    1426:	08 95       	ret

00001428 <NHPread>:
		protocol->reset = true;
	}
	return errorLevel;
}

NHP_Enum_t NHPread(uint8_t input, NHP_Data_t* protocol){
    1428:	0f 93       	push	r16
    142a:	1f 93       	push	r17
    142c:	fb 01       	movw	r30, r22
	// check if previous reading had a lead error, copy that lead byte to the beginning
	if (protocol->leadError){
    142e:	90 81       	ld	r25, Z
    1430:	96 ff       	sbrs	r25, 6
    1432:	0f c0       	rjmp	.+30     	; 0x1452 <NHPread+0x2a>
		protocol->readbuffer[0] = protocol->readbuffer[protocol->readlength];
    1434:	29 2f       	mov	r18, r25
    1436:	26 95       	lsr	r18
    1438:	26 95       	lsr	r18
    143a:	26 95       	lsr	r18
    143c:	27 70       	andi	r18, 0x07	; 7
    143e:	db 01       	movw	r26, r22
    1440:	a2 0f       	add	r26, r18
    1442:	b1 1d       	adc	r27, r1
    1444:	15 96       	adiw	r26, 0x05	; 5
    1446:	2c 91       	ld	r18, X
    1448:	25 83       	std	Z+5, r18	; 0x05
		protocol->readlength = 1;
    144a:	97 7c       	andi	r25, 0xC7	; 199

		// reset leadError indicator
		protocol->leadError = false;
    144c:	98 60       	ori	r25, 0x08	; 8
    144e:	9f 7b       	andi	r25, 0xBF	; 191
    1450:	03 c0       	rjmp	.+6      	; 0x1458 <NHPread+0x30>
	}
	// completely reset the protocol after sucessfull reading/error last time
	else if (protocol->reset){
    1452:	97 ff       	sbrs	r25, 7
    1454:	02 c0       	rjmp	.+4      	; 0x145a <NHPread+0x32>
		protocol->mBlocks = 0;
		protocol->readlength = 0;
    1456:	90 7c       	andi	r25, 0xC0	; 192
    1458:	90 83       	st	Z, r25
	}

	//write input to the buffer
	protocol->readbuffer[protocol->readlength++] = input;
    145a:	90 81       	ld	r25, Z
    145c:	96 95       	lsr	r25
    145e:	96 95       	lsr	r25
    1460:	96 95       	lsr	r25
    1462:	97 70       	andi	r25, 0x07	; 7
    1464:	df 01       	movw	r26, r30
    1466:	a9 0f       	add	r26, r25
    1468:	b1 1d       	adc	r27, r1
    146a:	15 96       	adiw	r26, 0x05	; 5
    146c:	8c 93       	st	X, r24
    146e:	29 2f       	mov	r18, r25
    1470:	2f 5f       	subi	r18, 0xFF	; 255
    1472:	27 70       	andi	r18, 0x07	; 7
    1474:	22 0f       	add	r18, r18
    1476:	22 0f       	add	r18, r18
    1478:	22 0f       	add	r18, r18
    147a:	40 81       	ld	r20, Z
    147c:	47 7c       	andi	r20, 0xC7	; 199
    147e:	42 2b       	or	r20, r18
    1480:	40 83       	st	Z, r20

	// create errorLevel that will be returned (contains errors or address)
	NHP_Enum_t errorLevel;
	
	// check the header(lead/data/end) indicator
	switch (input & NHP_MASK_HEADER){
    1482:	28 2f       	mov	r18, r24
    1484:	20 7c       	andi	r18, 0xC0	; 192
    1486:	34 2f       	mov	r19, r20
    1488:	37 70       	andi	r19, 0x07	; 7
    148a:	20 38       	cpi	r18, 0x80	; 128
    148c:	09 f4       	brne	.+2      	; 0x1490 <NHPread+0x68>
    148e:	63 c0       	rjmp	.+198    	; 0x1556 <NHPread+0x12e>
    1490:	20 3c       	cpi	r18, 0xC0	; 192
    1492:	09 f0       	breq	.+2      	; 0x1496 <NHPread+0x6e>
    1494:	45 c0       	rjmp	.+138    	; 0x1520 <NHPread+0xf8>

	case(NHP_HEADER_LEAD) :
	{
		// read command indicator or block length
		uint8_t blocks = (input & NHP_MASK_LENGTH) >> 3;
    1496:	28 2f       	mov	r18, r24
    1498:	28 73       	andi	r18, 0x38	; 56
    149a:	26 95       	lsr	r18
    149c:	26 95       	lsr	r18
    149e:	26 95       	lsr	r18

		if (protocol->mBlocks){
    14a0:	33 23       	and	r19, r19
    14a2:	49 f0       	breq	.+18     	; 0x14b6 <NHPread+0x8e>
			// we were still reading! Log an error but continue reading with this new lead
			errorLevel = NHP_ERR_LEAD;
			// write the buffer without the new lead, move it next reading
			protocol->readlength--;
    14a4:	99 0f       	add	r25, r25
    14a6:	99 0f       	add	r25, r25
    14a8:	99 0f       	add	r25, r25
    14aa:	47 7c       	andi	r20, 0xC7	; 199
			// set indicator to move this lead byte to the beginning next reading
			protocol->leadError = true;
    14ac:	49 2b       	or	r20, r25
    14ae:	40 64       	ori	r20, 0x40	; 64
    14b0:	40 83       	st	Z, r20
		// read command indicator or block length
		uint8_t blocks = (input & NHP_MASK_LENGTH) >> 3;

		if (protocol->mBlocks){
			// we were still reading! Log an error but continue reading with this new lead
			errorLevel = NHP_ERR_LEAD;
    14b2:	9e ef       	ldi	r25, 0xFE	; 254
    14b4:	01 c0       	rjmp	.+2      	; 0x14b8 <NHPread+0x90>
			protocol->readlength--;
			// set indicator to move this lead byte to the beginning next reading
			protocol->leadError = true;
		}
		else
			errorLevel = NHP_NO_ERR;
    14b6:	90 e0       	ldi	r25, 0x00	; 0

		if (blocks == 0 || blocks == 1){
    14b8:	22 30       	cpi	r18, 0x02	; 2
    14ba:	98 f4       	brcc	.+38     	; 0x14e2 <NHPread+0xba>
			// save command in data variable
			//protocol->mWorkData = (input & NHP_MASK_COMMAND) + 1;

			// ignore command
			protocol->readlength += protocol->leadError;
    14bc:	90 81       	ld	r25, Z
    14be:	96 fb       	bst	r25, 6
    14c0:	22 27       	eor	r18, r18
    14c2:	20 f9       	bld	r18, 0
    14c4:	89 2f       	mov	r24, r25
    14c6:	86 95       	lsr	r24
    14c8:	86 95       	lsr	r24
    14ca:	86 95       	lsr	r24
    14cc:	82 0f       	add	r24, r18
    14ce:	87 70       	andi	r24, 0x07	; 7
    14d0:	88 0f       	add	r24, r24
    14d2:	88 0f       	add	r24, r24
    14d4:	88 0f       	add	r24, r24
    14d6:	97 7c       	andi	r25, 0xC7	; 199
			protocol->leadError = false;
    14d8:	98 2b       	or	r25, r24
    14da:	9f 7b       	andi	r25, 0xBF	; 191
    14dc:	90 83       	st	Z, r25

			// return command indicator
			errorLevel = NHP_COMMAND;
    14de:	9f ef       	ldi	r25, 0xFF	; 255
			break;
    14e0:	3f c0       	rjmp	.+126    	; 0x1560 <NHPread+0x138>
		}

		else if (blocks == 7){
    14e2:	27 30       	cpi	r18, 0x07	; 7
    14e4:	59 f4       	brne	.+22     	; 0x14fc <NHPread+0xd4>
			// save block length + first 4 data bits (special 32 bit case)
			protocol->mWorkData = input & NHP_MASK_DATA_4BIT;
    14e6:	08 2f       	mov	r16, r24
    14e8:	0f 70       	andi	r16, 0x0F	; 15
    14ea:	10 e0       	ldi	r17, 0x00	; 0
    14ec:	20 e0       	ldi	r18, 0x00	; 0
    14ee:	30 e0       	ldi	r19, 0x00	; 0
    14f0:	01 83       	std	Z+1, r16	; 0x01
    14f2:	12 83       	std	Z+2, r17	; 0x02
    14f4:	23 83       	std	Z+3, r18	; 0x03
    14f6:	34 83       	std	Z+4, r19	; 0x04
			blocks -= 2;
    14f8:	25 e0       	ldi	r18, 0x05	; 5
    14fa:	0a c0       	rjmp	.+20     	; 0x1510 <NHPread+0xe8>
		}
		else{
			// save block length + first 3 data bits
			protocol->mWorkData = input & NHP_MASK_DATA_3BIT;
    14fc:	48 2f       	mov	r20, r24
    14fe:	47 70       	andi	r20, 0x07	; 7
    1500:	50 e0       	ldi	r21, 0x00	; 0
    1502:	60 e0       	ldi	r22, 0x00	; 0
    1504:	70 e0       	ldi	r23, 0x00	; 0
    1506:	41 83       	std	Z+1, r20	; 0x01
    1508:	52 83       	std	Z+2, r21	; 0x02
    150a:	63 83       	std	Z+3, r22	; 0x03
    150c:	74 83       	std	Z+4, r23	; 0x04
			blocks--;
    150e:	21 50       	subi	r18, 0x01	; 1
		}

		// save new block length to the protocol data
		protocol->mBlocks = blocks;
    1510:	27 70       	andi	r18, 0x07	; 7
    1512:	80 81       	ld	r24, Z
    1514:	88 7f       	andi	r24, 0xF8	; 248
    1516:	82 2b       	or	r24, r18
    1518:	80 83       	st	Z, r24
	}
						 break;
	} // end switch

	// reset next reading on valid input/error/command
	if (errorLevel != NHP_NO_ERR)
    151a:	99 23       	and	r25, r25
    151c:	29 f1       	breq	.+74     	; 0x1568 <NHPread+0x140>
    151e:	20 c0       	rjmp	.+64     	; 0x1560 <NHPread+0x138>

	case NHP_HEADER_DATA_A:
	case NHP_HEADER_DATA_B:
	default:
	{
		if (protocol->mBlocks >= 2){
    1520:	03 2f       	mov	r16, r19
    1522:	10 e0       	ldi	r17, 0x00	; 0
    1524:	02 30       	cpi	r16, 0x02	; 2
    1526:	11 05       	cpc	r17, r1
    1528:	24 f1       	brlt	.+72     	; 0x1572 <NHPread+0x14a>
			// get next 7 bits of data
			protocol->mBlocks--;
    152a:	39 5f       	subi	r19, 0xF9	; 249
    152c:	37 70       	andi	r19, 0x07	; 7
    152e:	48 7f       	andi	r20, 0xF8	; 248
    1530:	43 2b       	or	r20, r19
    1532:	40 83       	st	Z, r20
			protocol->mWorkData <<= 7;
    1534:	41 81       	ldd	r20, Z+1	; 0x01
    1536:	52 81       	ldd	r21, Z+2	; 0x02
    1538:	63 81       	ldd	r22, Z+3	; 0x03
    153a:	74 81       	ldd	r23, Z+4	; 0x04
    153c:	97 e0       	ldi	r25, 0x07	; 7
    153e:	44 0f       	add	r20, r20
    1540:	55 1f       	adc	r21, r21
    1542:	66 1f       	adc	r22, r22
    1544:	77 1f       	adc	r23, r23
    1546:	9a 95       	dec	r25
    1548:	d1 f7       	brne	.-12     	; 0x153e <NHPread+0x116>
			// dont need &NHP_MASK_DATA_7BIT because first MSB bit is zero!
			protocol->mWorkData |= input;
    154a:	48 2b       	or	r20, r24
    154c:	41 83       	std	Z+1, r20	; 0x01
    154e:	52 83       	std	Z+2, r21	; 0x02
    1550:	63 83       	std	Z+3, r22	; 0x03
    1552:	74 83       	std	Z+4, r23	; 0x04
    1554:	09 c0       	rjmp	.+18     	; 0x1568 <NHPread+0x140>
	}
		break;

	case(NHP_HEADER_END) :
	{
		if (protocol->mBlocks == 1){
    1556:	31 30       	cpi	r19, 0x01	; 1
    1558:	71 f4       	brne	.+28     	; 0x1576 <NHPread+0x14e>
			// return the address
			uint8_t address = (input & 0x3F) + 1;
    155a:	98 2f       	mov	r25, r24
    155c:	9f 73       	andi	r25, 0x3F	; 63
    155e:	9f 5f       	subi	r25, 0xFF	; 255
						 break;
	} // end switch

	// reset next reading on valid input/error/command
	if (errorLevel != NHP_NO_ERR)
		protocol->reset = true;
    1560:	80 81       	ld	r24, Z
    1562:	80 68       	ori	r24, 0x80	; 128
    1564:	80 83       	st	Z, r24
    1566:	09 c0       	rjmp	.+18     	; 0x157a <NHPread+0x152>
	// ignore in progress reading
	else
		protocol->reset = false;
    1568:	80 81       	ld	r24, Z
    156a:	8f 77       	andi	r24, 0x7F	; 127
    156c:	80 83       	st	Z, r24
    156e:	90 e0       	ldi	r25, 0x00	; 0
    1570:	04 c0       	rjmp	.+8      	; 0x157a <NHPread+0x152>
			protocol->mWorkData |= input;
			errorLevel = NHP_NO_ERR;
		}
		else
			// log an error, expecting a lead or end byte
			errorLevel = NHP_ERR_DATA;
    1572:	9d ef       	ldi	r25, 0xFD	; 253
    1574:	f5 cf       	rjmp	.-22     	; 0x1560 <NHPread+0x138>
			// return the address
			uint8_t address = (input & 0x3F) + 1;
			errorLevel = address;
		}
		else
			errorLevel = NHP_ERR_END;
    1576:	9c ef       	ldi	r25, 0xFC	; 252
    1578:	f3 cf       	rjmp	.-26     	; 0x1560 <NHPread+0x138>
	else
		protocol->reset = false;

	// return the errors
	return errorLevel;
}
    157a:	89 2f       	mov	r24, r25
    157c:	1f 91       	pop	r17
    157e:	0f 91       	pop	r16
    1580:	08 95       	ret

00001582 <NHPreadChecksum>:
	// reset variables
	protocol->reset = true;
	protocol->leadError = false;
}

NHP_Enum_t NHPreadChecksum(uint8_t input, NHP_Data_t* protocol){
    1582:	0f 93       	push	r16
    1584:	1f 93       	push	r17
    1586:	cf 93       	push	r28
    1588:	df 93       	push	r29
    158a:	eb 01       	movw	r28, r22
	NHP_Enum_t errorLevel = NHPread(input, protocol);
    158c:	4d df       	rcall	.-358    	; 0x1428 <NHPread>
    158e:	18 16       	cp	r1, r24
	// if its an valid address, check the data inverse too
	if (errorLevel > 0 && (((protocol->mWorkData & 0xFFFF) ^ (protocol->mWorkData >> 16)) != 0xFFFF)){
    1590:	b4 f4       	brge	.+44     	; 0x15be <NHPreadChecksum+0x3c>
    1592:	09 81       	ldd	r16, Y+1	; 0x01
    1594:	1a 81       	ldd	r17, Y+2	; 0x02
    1596:	2b 81       	ldd	r18, Y+3	; 0x03
    1598:	3c 81       	ldd	r19, Y+4	; 0x04
    159a:	a9 01       	movw	r20, r18
    159c:	66 27       	eor	r22, r22
    159e:	77 27       	eor	r23, r23
    15a0:	22 27       	eor	r18, r18
    15a2:	33 27       	eor	r19, r19
    15a4:	40 27       	eor	r20, r16
    15a6:	51 27       	eor	r21, r17
    15a8:	62 27       	eor	r22, r18
    15aa:	73 27       	eor	r23, r19
    15ac:	4f 3f       	cpi	r20, 0xFF	; 255
    15ae:	5f 4f       	sbci	r21, 0xFF	; 255
    15b0:	61 05       	cpc	r22, r1
    15b2:	71 05       	cpc	r23, r1
    15b4:	21 f0       	breq	.+8      	; 0x15be <NHPreadChecksum+0x3c>
    15b6:	88 81       	ld	r24, Y
		errorLevel = NHP_ERR_CHECKSUM;
		protocol->reset = true;
    15b8:	80 68       	ori	r24, 0x80	; 128
    15ba:	88 83       	st	Y, r24
    15bc:	8b ef       	ldi	r24, 0xFB	; 251

NHP_Enum_t NHPreadChecksum(uint8_t input, NHP_Data_t* protocol){
	NHP_Enum_t errorLevel = NHPread(input, protocol);
	// if its an valid address, check the data inverse too
	if (errorLevel > 0 && (((protocol->mWorkData & 0xFFFF) ^ (protocol->mWorkData >> 16)) != 0xFFFF)){
		errorLevel = NHP_ERR_CHECKSUM;
    15be:	df 91       	pop	r29
		protocol->reset = true;
	}
	return errorLevel;
}
    15c0:	cf 91       	pop	r28
    15c2:	1f 91       	pop	r17
    15c4:	0f 91       	pop	r16
    15c6:	08 95       	ret

000015c8 <NHPwriteChecksum>:
	uint32_t temp = ~data;
	uint32_t checksum = (temp << 16) | data;
	return NHPwriteChecksum(address, checksum, buff);
}

uint8_t NHPwriteChecksum(uint8_t address, uint16_t data, uint8_t* buff){
    15c8:	fa 01       	movw	r30, r20
    15ca:	2c e1       	ldi	r18, 0x1C	; 28
    15cc:	30 e0       	ldi	r19, 0x00	; 0
	// start with the maximum size of blocks
	uint8_t blocks = 7;
    15ce:	97 e0       	ldi	r25, 0x07	; 7

	// check for the first 7 bit block that doesnt fit into the first 3 bits
	while (blocks > 2){
		uint8_t nextvalue = (data >> (7 * (blocks - 3)));
    15d0:	ab 01       	movw	r20, r22
    15d2:	02 2e       	mov	r0, r18
    15d4:	02 c0       	rjmp	.+4      	; 0x15da <NHPwriteChecksum+0x12>
    15d6:	56 95       	lsr	r21
    15d8:	47 95       	ror	r20
    15da:	0a 94       	dec	r0
    15dc:	e2 f7       	brpl	.-8      	; 0x15d6 <NHPwriteChecksum+0xe>
		if (nextvalue > NHP_MASK_DATA_3BIT){
    15de:	48 30       	cpi	r20, 0x08	; 8
    15e0:	28 f0       	brcs	.+10     	; 0x15ec <NHPwriteChecksum+0x24>
			// special case for the MSB
			if (blocks == 7) {
    15e2:	97 30       	cpi	r25, 0x07	; 7
    15e4:	59 f4       	brne	.+22     	; 0x15fc <NHPwriteChecksum+0x34>
				buff[0] = nextvalue;
    15e6:	40 83       	st	Z, r20
				blocks--;
    15e8:	96 e0       	ldi	r25, 0x06	; 6
    15ea:	08 c0       	rjmp	.+16     	; 0x15fc <NHPwriteChecksum+0x34>
			}
			break;
		}
		else{
			// write the possible first 3 bits and check again after if zero
			buff[0] = nextvalue;
    15ec:	40 83       	st	Z, r20
			blocks--;
    15ee:	91 50       	subi	r25, 0x01	; 1
			// we have our first bits, stop (nonzero)
			if (nextvalue)
    15f0:	41 11       	cpse	r20, r1
    15f2:	04 c0       	rjmp	.+8      	; 0x15fc <NHPwriteChecksum+0x34>
    15f4:	27 50       	subi	r18, 0x07	; 7
    15f6:	31 09       	sbc	r19, r1
uint8_t NHPwriteChecksum(uint8_t address, uint16_t data, uint8_t* buff){
	// start with the maximum size of blocks
	uint8_t blocks = 7;

	// check for the first 7 bit block that doesnt fit into the first 3 bits
	while (blocks > 2){
    15f8:	92 30       	cpi	r25, 0x02	; 2
    15fa:	51 f7       	brne	.-44     	; 0x15d0 <NHPwriteChecksum+0x8>
				break;
		}
	}

	// write the rest of the data bits
	uint8_t datablocks = blocks - 2;
    15fc:	49 2f       	mov	r20, r25
    15fe:	42 50       	subi	r20, 0x02	; 2
	while (datablocks > 0){
    1600:	0d c0       	rjmp	.+26     	; 0x161c <NHPwriteChecksum+0x54>
		buff[datablocks] = data & NHP_MASK_DATA_7BIT;
    1602:	df 01       	movw	r26, r30
    1604:	a4 0f       	add	r26, r20
    1606:	b1 1d       	adc	r27, r1
    1608:	9b 01       	movw	r18, r22
    160a:	2f 77       	andi	r18, 0x7F	; 127
    160c:	33 27       	eor	r19, r19
    160e:	2c 93       	st	X, r18
		data >>= 7;
    1610:	66 0f       	add	r22, r22
    1612:	67 2f       	mov	r22, r23
    1614:	66 1f       	adc	r22, r22
    1616:	77 0b       	sbc	r23, r23
    1618:	71 95       	neg	r23
		datablocks--;
    161a:	41 50       	subi	r20, 0x01	; 1
		}
	}

	// write the rest of the data bits
	uint8_t datablocks = blocks - 2;
	while (datablocks > 0){
    161c:	41 11       	cpse	r20, r1
    161e:	f1 cf       	rjmp	.-30     	; 0x1602 <NHPwriteChecksum+0x3a>
		data >>= 7;
		datablocks--;
	}

	// write lead + length mask
	buff[0] |= NHP_HEADER_LEAD | (blocks << 3);
    1620:	49 2f       	mov	r20, r25
    1622:	50 e0       	ldi	r21, 0x00	; 0
    1624:	9a 01       	movw	r18, r20
    1626:	63 e0       	ldi	r22, 0x03	; 3
    1628:	22 0f       	add	r18, r18
    162a:	33 1f       	adc	r19, r19
    162c:	6a 95       	dec	r22
    162e:	e1 f7       	brne	.-8      	; 0x1628 <NHPwriteChecksum+0x60>
    1630:	20 6c       	ori	r18, 0xC0	; 192
    1632:	3f 6f       	ori	r19, 0xFF	; 255
    1634:	30 81       	ld	r19, Z
    1636:	32 2b       	or	r19, r18
    1638:	30 83       	st	Z, r19

	// write end mask
	buff[blocks - 1] = NHP_HEADER_END | ((address - 1) & NHP_MASK_ADDRESS);
    163a:	e4 0f       	add	r30, r20
    163c:	f5 1f       	adc	r31, r21
    163e:	31 97       	sbiw	r30, 0x01	; 1
    1640:	81 50       	subi	r24, 0x01	; 1
    1642:	8f 73       	andi	r24, 0x3F	; 63
    1644:	80 68       	ori	r24, 0x80	; 128
    1646:	80 83       	st	Z, r24

	// return the length
	return blocks;
}
    1648:	89 2f       	mov	r24, r25
    164a:	08 95       	ret

0000164c <EVENT_CDC_Device_ControLineStateChanged>:
*
*  \param[in] CDCInterfaceInfo  Pointer to the CDC class interface configuration structure being referenced
*/
void EVENT_CDC_Device_ControLineStateChanged(USB_ClassInfo_CDC_Device_t* const CDCInterfaceInfo)
{
	bool CurrentDTRState = (CDCInterfaceInfo->State.ControlLineStates.HostToDevice & CDC_CONTROL_LINE_OUT_DTR);
    164c:	fc 01       	movw	r30, r24
    164e:	20 89       	ldd	r18, Z+16	; 0x10

	if (CurrentDTRState){
    1650:	20 ff       	sbrs	r18, 0
    1652:	02 c0       	rjmp	.+4      	; 0x1658 <EVENT_CDC_Device_ControLineStateChanged+0xc>
		AVR_RESET_LINE_PORT &= ~AVR_RESET_LINE_MASK;
    1654:	5f 98       	cbi	0x0b, 7	; 11
    1656:	08 95       	ret
	}
	else{
		AVR_RESET_LINE_PORT |= AVR_RESET_LINE_MASK;
    1658:	5f 9a       	sbi	0x0b, 7	; 11
	}

	static inline void LEDs_SetAllLEDs(const uint8_t LEDMask)
	{
		PORTD = ((PORTD | LEDS_ALL_LEDS) & ~LEDMask);
    165a:	8b b1       	in	r24, 0x0b	; 11
    165c:	80 63       	ori	r24, 0x30	; 48
    165e:	8b b9       	out	0x0b, r24	; 11
    1660:	08 95       	ret

00001662 <SerialInitHID>:
	//if (!ram.isp.pmode)
	//clearHIDReports();
}

// change Serial baud to 115200 for HID
void SerialInitHID(void){
    1662:	cf 93       	push	r28
    1664:	df 93       	push	r29
			static inline void Serial_Init(const uint32_t BaudRate,
			                               const bool DoubleSpeed);
			static inline void Serial_Init(const uint32_t BaudRate,
			                               const bool DoubleSpeed)
			{
				UBRR1  = (DoubleSpeed ? SERIAL_2X_UBBRVAL(BaudRate) : SERIAL_UBBRVAL(BaudRate));
    1666:	80 e1       	ldi	r24, 0x10	; 16
    1668:	90 e0       	ldi	r25, 0x00	; 0
    166a:	90 93 cd 00 	sts	0x00CD, r25
    166e:	80 93 cc 00 	sts	0x00CC, r24

				UCSR1C = ((1 << UCSZ11) | (1 << UCSZ10));
    1672:	ca ec       	ldi	r28, 0xCA	; 202
    1674:	d0 e0       	ldi	r29, 0x00	; 0
    1676:	96 e0       	ldi	r25, 0x06	; 6
    1678:	98 83       	st	Y, r25
				UCSR1A = (DoubleSpeed ? (1 << U2X1) : 0);
    167a:	a8 ec       	ldi	r26, 0xC8	; 200
    167c:	b0 e0       	ldi	r27, 0x00	; 0
    167e:	82 e0       	ldi	r24, 0x02	; 2
    1680:	8c 93       	st	X, r24
				UCSR1B = ((1 << TXEN1)  | (1 << RXEN1));
    1682:	e9 ec       	ldi	r30, 0xC9	; 201
    1684:	f0 e0       	ldi	r31, 0x00	; 0
    1686:	28 e1       	ldi	r18, 0x18	; 24
    1688:	20 83       	st	Z, r18

				DDRD  |= (1 << 3);
    168a:	53 9a       	sbi	0x0a, 3	; 10
				PORTD |= (1 << 2);
    168c:	5a 9a       	sbi	0x0b, 2	; 11
	Serial_Init(115200, true);

	/* Must turn off USART before reconfiguring it, otherwise incorrect operation may occur */
	// Added for correct Serial connection at baud 115200 <--
	// TODO PD3 ??
	PORTD |= (1 << PD3); // Turn ON Tx while USART is being reconfigured
    168e:	5b 9a       	sbi	0x0b, 3	; 11
	UCSR1B = 0;
    1690:	10 82       	st	Z, r1
	UCSR1A = 0;
    1692:	1c 92       	st	X, r1
	UCSR1C = 0;
    1694:	18 82       	st	Y, r1

	// these are values for baud 115200. i just read them manual from change
	// its needed to start with baud 115200 on powerup
	UCSR1C = ((1 << UCSZ11) | (1 << UCSZ10)); //C: 0x06
    1696:	98 83       	st	Y, r25
	UCSR1A = (1 << U2X1); //A: 0x02
    1698:	8c 93       	st	X, r24
	UCSR1B = ((1 << RXCIE1) | (1 << TXEN1) | (1 << RXEN1)); //B: 0x98
    169a:	88 e9       	ldi	r24, 0x98	; 152
    169c:	80 83       	st	Z, r24
	PORTD &= ~(1 << PD3); // And turn OFF Tx once USART has been reconfigured (this is overridden by TXEN)
    169e:	5b 98       	cbi	0x0b, 3	; 11
}
    16a0:	df 91       	pop	r29
    16a2:	cf 91       	pop	r28
    16a4:	08 95       	ret

000016a6 <EVENT_CDC_Device_LineEncodingChanged>:
/** Event handler for the CDC Class driver Line Encoding Changed event.
*
*  \param[in] CDCInterfaceInfo  Pointer to the CDC class interface configuration structure being referenced
*/
void EVENT_CDC_Device_LineEncodingChanged(USB_ClassInfo_CDC_Device_t* const CDCInterfaceInfo)
{
    16a6:	1f 93       	push	r17
    16a8:	cf 93       	push	r28
    16aa:	df 93       	push	r29
    16ac:	ec 01       	movw	r28, r24
    16ae:	e9 8d       	ldd	r30, Y+25	; 0x19
    16b0:	e1 50       	subi	r30, 0x01	; 1
    16b2:	e2 30       	cpi	r30, 0x02	; 2
    16b4:	28 f4       	brcc	.+10     	; 0x16c0 <EVENT_CDC_Device_LineEncodingChanged+0x1a>
    16b6:	f0 e0       	ldi	r31, 0x00	; 0
    16b8:	ec 5c       	subi	r30, 0xCC	; 204
    16ba:	fe 4f       	sbci	r31, 0xFE	; 254
    16bc:	10 81       	ld	r17, Z
    16be:	01 c0       	rjmp	.+2      	; 0x16c2 <EVENT_CDC_Device_LineEncodingChanged+0x1c>
	uint8_t ConfigMask = 0;

	switch (CDCInterfaceInfo->State.LineEncoding.ParityType)
    16c0:	10 e0       	ldi	r17, 0x00	; 0
	case CDC_PARITY_Even:
		ConfigMask = (1 << UPM11);
		break;
	}

	if (CDCInterfaceInfo->State.LineEncoding.CharFormat == CDC_LINEENCODING_TwoStopBits)
    16c2:	88 8d       	ldd	r24, Y+24	; 0x18
    16c4:	82 30       	cpi	r24, 0x02	; 2
    16c6:	09 f4       	brne	.+2      	; 0x16ca <EVENT_CDC_Device_LineEncodingChanged+0x24>
		ConfigMask |= (1 << USBS1);
    16c8:	18 60       	ori	r17, 0x08	; 8

	switch (CDCInterfaceInfo->State.LineEncoding.DataBits)
    16ca:	8a 8d       	ldd	r24, Y+26	; 0x1a
    16cc:	87 30       	cpi	r24, 0x07	; 7
    16ce:	31 f0       	breq	.+12     	; 0x16dc <EVENT_CDC_Device_LineEncodingChanged+0x36>
    16d0:	88 30       	cpi	r24, 0x08	; 8
    16d2:	31 f0       	breq	.+12     	; 0x16e0 <EVENT_CDC_Device_LineEncodingChanged+0x3a>
    16d4:	86 30       	cpi	r24, 0x06	; 6
    16d6:	29 f4       	brne	.+10     	; 0x16e2 <EVENT_CDC_Device_LineEncodingChanged+0x3c>
	{
	case 6:
		ConfigMask |= (1 << UCSZ10);
    16d8:	12 60       	ori	r17, 0x02	; 2
		break;
    16da:	03 c0       	rjmp	.+6      	; 0x16e2 <EVENT_CDC_Device_LineEncodingChanged+0x3c>
	case 7:
		ConfigMask |= (1 << UCSZ11);
    16dc:	14 60       	ori	r17, 0x04	; 4
		break;
    16de:	01 c0       	rjmp	.+2      	; 0x16e2 <EVENT_CDC_Device_LineEncodingChanged+0x3c>
	case 8:
		ConfigMask |= ((1 << UCSZ11) | (1 << UCSZ10));
    16e0:	16 60       	ori	r17, 0x06	; 6
		break;
	}

	/* Must turn off USART before reconfiguring it, otherwise incorrect operation may occur */
	PORTD |= (1 << PD3); // Turn ON Tx while USART is being reconfigured
    16e2:	5b 9a       	sbi	0x0b, 3	; 11
	UCSR1B = 0;
    16e4:	10 92 c9 00 	sts	0x00C9, r1
	UCSR1A = 0;
    16e8:	10 92 c8 00 	sts	0x00C8, r1
	UCSR1C = 0;
    16ec:	10 92 ca 00 	sts	0x00CA, r1

	/* Special case 57600 baud for compatibility with the ATmega328 bootloader. */
	UBRR1 = (CDCInterfaceInfo->State.LineEncoding.BaudRateBPS == 57600)
    16f0:	2c 89       	ldd	r18, Y+20	; 0x14
    16f2:	3d 89       	ldd	r19, Y+21	; 0x15
    16f4:	4e 89       	ldd	r20, Y+22	; 0x16
    16f6:	5f 89       	ldd	r21, Y+23	; 0x17
    16f8:	21 15       	cp	r18, r1
    16fa:	81 ee       	ldi	r24, 0xE1	; 225
    16fc:	38 07       	cpc	r19, r24
    16fe:	41 05       	cpc	r20, r1
    1700:	51 05       	cpc	r21, r1
    1702:	79 f0       	breq	.+30     	; 0x1722 <EVENT_CDC_Device_LineEncodingChanged+0x7c>
		? SERIAL_UBBRVAL(CDCInterfaceInfo->State.LineEncoding.BaudRateBPS)
		: SERIAL_2X_UBBRVAL(CDCInterfaceInfo->State.LineEncoding.BaudRateBPS);
    1704:	ca 01       	movw	r24, r20
    1706:	b9 01       	movw	r22, r18
    1708:	96 95       	lsr	r25
    170a:	87 95       	ror	r24
    170c:	77 95       	ror	r23
    170e:	67 95       	ror	r22
    1710:	60 58       	subi	r22, 0x80	; 128
    1712:	7b 47       	sbci	r23, 0x7B	; 123
    1714:	81 4e       	sbci	r24, 0xE1	; 225
    1716:	9f 4f       	sbci	r25, 0xFF	; 255
    1718:	0e 94 1b 14 	call	0x2836	; 0x2836 <__udivmodsi4>
	UCSR1B = 0;
	UCSR1A = 0;
	UCSR1C = 0;

	/* Special case 57600 baud for compatibility with the ATmega328 bootloader. */
	UBRR1 = (CDCInterfaceInfo->State.LineEncoding.BaudRateBPS == 57600)
    171c:	21 50       	subi	r18, 0x01	; 1
    171e:	31 09       	sbc	r19, r1
    1720:	02 c0       	rjmp	.+4      	; 0x1726 <EVENT_CDC_Device_LineEncodingChanged+0x80>
    1722:	20 e1       	ldi	r18, 0x10	; 16
    1724:	30 e0       	ldi	r19, 0x00	; 0
    1726:	30 93 cd 00 	sts	0x00CD, r19
    172a:	20 93 cc 00 	sts	0x00CC, r18
		? SERIAL_UBBRVAL(CDCInterfaceInfo->State.LineEncoding.BaudRateBPS)
		: SERIAL_2X_UBBRVAL(CDCInterfaceInfo->State.LineEncoding.BaudRateBPS);

	UCSR1C = ConfigMask;
    172e:	10 93 ca 00 	sts	0x00CA, r17
	UCSR1A = (CDCInterfaceInfo->State.LineEncoding.BaudRateBPS == 57600) ? 0 : (1 << U2X1);
    1732:	8c 89       	ldd	r24, Y+20	; 0x14
    1734:	9d 89       	ldd	r25, Y+21	; 0x15
    1736:	ae 89       	ldd	r26, Y+22	; 0x16
    1738:	bf 89       	ldd	r27, Y+23	; 0x17
    173a:	81 15       	cp	r24, r1
    173c:	91 4e       	sbci	r25, 0xE1	; 225
    173e:	a1 05       	cpc	r26, r1
    1740:	b1 05       	cpc	r27, r1
    1742:	11 f4       	brne	.+4      	; 0x1748 <EVENT_CDC_Device_LineEncodingChanged+0xa2>
    1744:	80 e0       	ldi	r24, 0x00	; 0
    1746:	01 c0       	rjmp	.+2      	; 0x174a <EVENT_CDC_Device_LineEncodingChanged+0xa4>
    1748:	82 e0       	ldi	r24, 0x02	; 2
    174a:	80 93 c8 00 	sts	0x00C8, r24
	UCSR1B = ((1 << RXCIE1) | (1 << TXEN1) | (1 << RXEN1));
    174e:	88 e9       	ldi	r24, 0x98	; 152
    1750:	80 93 c9 00 	sts	0x00C9, r24
	PORTD &= ~(1 << PD3); // And turn OFF Tx once USART has been reconfigured (this is overridden by TXEN)
    1754:	5b 98       	cbi	0x0b, 3	; 11

	// configure Serial with HID baud to work after reprogramming
	if (CDCInterfaceInfo->State.LineEncoding.BaudRateBPS == AVRISP_BAUD){
    1756:	8c 89       	ldd	r24, Y+20	; 0x14
    1758:	9d 89       	ldd	r25, Y+21	; 0x15
    175a:	ae 89       	ldd	r26, Y+22	; 0x16
    175c:	bf 89       	ldd	r27, Y+23	; 0x17
    175e:	01 97       	sbiw	r24, 0x01	; 1
    1760:	a1 05       	cpc	r26, r1
    1762:	b1 05       	cpc	r27, r1
    1764:	11 f4       	brne	.+4      	; 0x176a <EVENT_CDC_Device_LineEncodingChanged+0xc4>
		SerialInitHID();
    1766:	7d df       	rcall	.-262    	; 0x1662 <SerialInitHID>
    1768:	3f da       	rcall	.-2946   	; 0xbe8 <avrispReset>
		// disable the buffer until pmode has started
		//LRingBuffer_DisableBuffer(&ram.RingBuffer);
		//TODO add a pmode block?

		avrispReset();
    176a:	80 91 be 01 	lds	r24, 0x01BE
	}

	// end pmode if needed and setup Serial + HID again (on errors)
	if (ram.isp.pmode)
    176e:	88 23       	and	r24, r24
    1770:	21 f0       	breq	.+8      	; 0x177a <EVENT_CDC_Device_LineEncodingChanged+0xd4>
    1772:	df 91       	pop	r29
    1774:	cf 91       	pop	r28
		//TODO pmode break to get out of this loop
		end_pmode();
	// clear HID reports if chip gets restarted
	else
	clearHIDReports();
}
    1776:	1f 91       	pop	r17
    1778:	3e cb       	rjmp	.-2436   	; 0xdf6 <end_pmode>
    177a:	df 91       	pop	r29
	}

	// end pmode if needed and setup Serial + HID again (on errors)
	if (ram.isp.pmode)
		//TODO pmode break to get out of this loop
		end_pmode();
    177c:	cf 91       	pop	r28
    177e:	1f 91       	pop	r17
	// clear HID reports if chip gets restarted
	else
	clearHIDReports();
}
    1780:	38 c9       	rjmp	.-3472   	; 0x9f2 <clearHIDReports>

00001782 <Serial_SendData>:
		Serial_SendByte(CurrByte);
		StringPtr++;
	}
}

void Serial_SendData(const void* Buffer,
    1782:	68 0f       	add	r22, r24
    1784:	79 1f       	adc	r23, r25
                     uint16_t Length)
{
	while (Length--)
    1786:	09 c0       	rjmp	.+18     	; 0x179a <Serial_SendData+0x18>
	  Serial_SendByte(*((uint8_t*)Buffer++));
    1788:	fc 01       	movw	r30, r24
    178a:	21 91       	ld	r18, Z+
    178c:	cf 01       	movw	r24, r30
			 *  \param[in] DataByte  Byte to transmit through the USART.
			 */
			static inline void Serial_SendByte(const char DataByte) ATTR_ALWAYS_INLINE;
			static inline void Serial_SendByte(const char DataByte)
			{
				while (!(UCSR1A & (1 << UDRE1)));
    178e:	30 91 c8 00 	lds	r19, 0x00C8
    1792:	35 ff       	sbrs	r19, 5
    1794:	fc cf       	rjmp	.-8      	; 0x178e <Serial_SendData+0xc>
				UDR1 = DataByte;
    1796:	20 93 ce 00 	sts	0x00CE, r18
}

void Serial_SendData(const void* Buffer,
                     uint16_t Length)
{
	while (Length--)
    179a:	86 17       	cp	r24, r22
    179c:	97 07       	cpc	r25, r23
    179e:	a1 f7       	brne	.-24     	; 0x1788 <Serial_SendData+0x6>
	  Serial_SendByte(*((uint8_t*)Buffer++));
}
    17a0:	08 95       	ret

000017a2 <Endpoint_Write_Stream_LE>:
#if defined(TEMPLATE_FUNC_NAME)

uint8_t TEMPLATE_FUNC_NAME (TEMPLATE_BUFFER_TYPE const Buffer,
                            uint16_t Length,
                            uint16_t* const BytesProcessed)
{
    17a2:	bf 92       	push	r11
    17a4:	cf 92       	push	r12
    17a6:	df 92       	push	r13
    17a8:	ef 92       	push	r14
    17aa:	ff 92       	push	r15
    17ac:	0f 93       	push	r16
    17ae:	1f 93       	push	r17
    17b0:	cf 93       	push	r28
    17b2:	df 93       	push	r29
    17b4:	7c 01       	movw	r14, r24
    17b6:	8b 01       	movw	r16, r22
    17b8:	ea 01       	movw	r28, r20
	uint8_t* DataStream      = ((uint8_t*)Buffer + TEMPLATE_BUFFER_OFFSET(Length));
	uint16_t BytesInTransfer = 0;
	uint8_t  ErrorCode;

	if ((ErrorCode = Endpoint_WaitUntilReady()))
    17ba:	d7 d1       	rcall	.+942    	; 0x1b6a <Endpoint_WaitUntilReady>
    17bc:	b8 2e       	mov	r11, r24
    17be:	81 11       	cpse	r24, r1
    17c0:	32 c0       	rjmp	.+100    	; 0x1826 <Endpoint_Write_Stream_LE+0x84>
    17c2:	20 97       	sbiw	r28, 0x00	; 0
	  return ErrorCode;

	if (BytesProcessed != NULL)
    17c4:	31 f0       	breq	.+12     	; 0x17d2 <Endpoint_Write_Stream_LE+0x30>
    17c6:	28 81       	ld	r18, Y
	{
		Length -= *BytesProcessed;
    17c8:	39 81       	ldd	r19, Y+1	; 0x01
    17ca:	02 1b       	sub	r16, r18
    17cc:	13 0b       	sbc	r17, r19
    17ce:	e2 0e       	add	r14, r18
		TEMPLATE_BUFFER_MOVE(DataStream, *BytesProcessed);
    17d0:	f3 1e       	adc	r15, r19
    17d2:	c1 2c       	mov	r12, r1

uint8_t TEMPLATE_FUNC_NAME (TEMPLATE_BUFFER_TYPE const Buffer,
                            uint16_t Length,
                            uint16_t* const BytesProcessed)
{
	uint8_t* DataStream      = ((uint8_t*)Buffer + TEMPLATE_BUFFER_OFFSET(Length));
    17d4:	d1 2c       	mov	r13, r1
    17d6:	22 c0       	rjmp	.+68     	; 0x181c <Endpoint_Write_Stream_LE+0x7a>
    17d8:	80 91 e8 00 	lds	r24, 0x00E8
			 *          on its direction.
			 */
			static inline bool Endpoint_IsReadWriteAllowed(void) ATTR_WARN_UNUSED_RESULT ATTR_ALWAYS_INLINE;
			static inline bool Endpoint_IsReadWriteAllowed(void)
			{
				return ((UEINTX & (1 << RWAL)) ? true : false);
    17dc:	85 fd       	sbrc	r24, 5
		TEMPLATE_BUFFER_MOVE(DataStream, *BytesProcessed);
	}

	while (Length)
	{
		if (!(Endpoint_IsReadWriteAllowed()))
    17de:	14 c0       	rjmp	.+40     	; 0x1808 <Endpoint_Write_Stream_LE+0x66>
    17e0:	80 91 e8 00 	lds	r24, 0x00E8
			 */
			static inline void Endpoint_ClearIN(void) ATTR_ALWAYS_INLINE;
			static inline void Endpoint_ClearIN(void)
			{
				#if !defined(CONTROL_ONLY_DEVICE)
					UEINTX &= ~((1 << TXINI) | (1 << FIFOCON));
    17e4:	8e 77       	andi	r24, 0x7E	; 126
    17e6:	80 93 e8 00 	sts	0x00E8, r24
    17ea:	20 97       	sbiw	r28, 0x00	; 0

			#if !defined(INTERRUPT_CONTROL_ENDPOINT)
			USB_USBTask();
			#endif

			if (BytesProcessed != NULL)
    17ec:	49 f0       	breq	.+18     	; 0x1800 <Endpoint_Write_Stream_LE+0x5e>
    17ee:	88 81       	ld	r24, Y
			{
				*BytesProcessed += BytesInTransfer;
    17f0:	99 81       	ldd	r25, Y+1	; 0x01
    17f2:	8c 0d       	add	r24, r12
    17f4:	9d 1d       	adc	r25, r13
    17f6:	99 83       	std	Y+1, r25	; 0x01
    17f8:	88 83       	st	Y, r24
    17fa:	25 e0       	ldi	r18, 0x05	; 5
				return ENDPOINT_RWSTREAM_IncompleteTransfer;
    17fc:	b2 2e       	mov	r11, r18
    17fe:	13 c0       	rjmp	.+38     	; 0x1826 <Endpoint_Write_Stream_LE+0x84>
    1800:	b4 d1       	rcall	.+872    	; 0x1b6a <Endpoint_WaitUntilReady>
			}

			if ((ErrorCode = Endpoint_WaitUntilReady()))
    1802:	88 23       	and	r24, r24
    1804:	59 f0       	breq	.+22     	; 0x181c <Endpoint_Write_Stream_LE+0x7a>
    1806:	0e c0       	rjmp	.+28     	; 0x1824 <Endpoint_Write_Stream_LE+0x82>
    1808:	f7 01       	movw	r30, r14
    180a:	81 91       	ld	r24, Z+
			  return ErrorCode;
		}
		else
		{
			TEMPLATE_TRANSFER_BYTE(DataStream);
    180c:	7f 01       	movw	r14, r30
    180e:	80 93 f1 00 	sts	0x00F1, r24
			 *  \param[in] Data  Data to write into the the currently selected endpoint's FIFO buffer.
			 */
			static inline void Endpoint_Write_8(const uint8_t Data) ATTR_ALWAYS_INLINE;
			static inline void Endpoint_Write_8(const uint8_t Data)
			{
				UEDATX = Data;
    1812:	01 50       	subi	r16, 0x01	; 1
    1814:	11 09       	sbc	r17, r1
			TEMPLATE_BUFFER_MOVE(DataStream, 1);
			Length--;
    1816:	ff ef       	ldi	r31, 0xFF	; 255
    1818:	cf 1a       	sub	r12, r31
			BytesInTransfer++;
    181a:	df 0a       	sbc	r13, r31
    181c:	01 15       	cp	r16, r1
    181e:	11 05       	cpc	r17, r1
	{
		Length -= *BytesProcessed;
		TEMPLATE_BUFFER_MOVE(DataStream, *BytesProcessed);
	}

	while (Length)
    1820:	d9 f6       	brne	.-74     	; 0x17d8 <Endpoint_Write_Stream_LE+0x36>
    1822:	01 c0       	rjmp	.+2      	; 0x1826 <Endpoint_Write_Stream_LE+0x84>
    1824:	b8 2e       	mov	r11, r24
    1826:	8b 2d       	mov	r24, r11
			{
				*BytesProcessed += BytesInTransfer;
				return ENDPOINT_RWSTREAM_IncompleteTransfer;
			}

			if ((ErrorCode = Endpoint_WaitUntilReady()))
    1828:	df 91       	pop	r29
			BytesInTransfer++;
		}
	}

	return ENDPOINT_RWSTREAM_NoError;
}
    182a:	cf 91       	pop	r28
    182c:	1f 91       	pop	r17
    182e:	0f 91       	pop	r16
    1830:	ff 90       	pop	r15
    1832:	ef 90       	pop	r14
    1834:	df 90       	pop	r13
    1836:	cf 90       	pop	r12
    1838:	bf 90       	pop	r11
    183a:	08 95       	ret

0000183c <Endpoint_Write_Control_Stream_LE>:

#if defined(TEMPLATE_FUNC_NAME)

uint8_t TEMPLATE_FUNC_NAME (const void* const Buffer,
                            uint16_t Length)
{
    183c:	20 91 fa 01 	lds	r18, 0x01FA
    1840:	30 91 fb 01 	lds	r19, 0x01FB
    1844:	26 17       	cp	r18, r22
    1846:	37 07       	cpc	r19, r23
    1848:	48 f0       	brcs	.+18     	; 0x185c <Endpoint_Write_Control_Stream_LE+0x20>
	uint8_t* DataStream     = ((uint8_t*)Buffer + TEMPLATE_BUFFER_OFFSET(Length));
	bool     LastPacketFull = false;

	if (Length > USB_ControlRequest.wLength)
	  Length = USB_ControlRequest.wLength;
	else if (!(Length))
    184a:	61 15       	cp	r22, r1
    184c:	71 05       	cpc	r23, r1
    184e:	39 f4       	brne	.+14     	; 0x185e <Endpoint_Write_Control_Stream_LE+0x22>
			 */
			static inline void Endpoint_ClearIN(void) ATTR_ALWAYS_INLINE;
			static inline void Endpoint_ClearIN(void)
			{
				#if !defined(CONTROL_ONLY_DEVICE)
					UEINTX &= ~((1 << TXINI) | (1 << FIFOCON));
    1850:	20 91 e8 00 	lds	r18, 0x00E8
    1854:	2e 77       	andi	r18, 0x7E	; 126
    1856:	20 93 e8 00 	sts	0x00E8, r18
    185a:	01 c0       	rjmp	.+2      	; 0x185e <Endpoint_Write_Control_Stream_LE+0x22>
                            uint16_t Length)
{
	uint8_t* DataStream     = ((uint8_t*)Buffer + TEMPLATE_BUFFER_OFFSET(Length));
	bool     LastPacketFull = false;

	if (Length > USB_ControlRequest.wLength)
    185c:	b9 01       	movw	r22, r18

		if (Endpoint_IsINReady())
		{
			uint16_t BytesInEndpoint = Endpoint_BytesInEndpoint();

			while (Length && (BytesInEndpoint < USB_Device_ControlEndpointSize))
    185e:	9c 01       	movw	r18, r24
    1860:	80 e0       	ldi	r24, 0x00	; 0
    1862:	34 c0       	rjmp	.+104    	; 0x18cc <Endpoint_Write_Control_Stream_LE+0x90>
	else if (!(Length))
	  Endpoint_ClearIN();

	while (Length || LastPacketFull)
	{
		uint8_t USB_DeviceState_LCL = USB_DeviceState;
    1864:	90 91 f3 01 	lds	r25, 0x01F3

		if (USB_DeviceState_LCL == DEVICE_STATE_Unattached)
    1868:	99 23       	and	r25, r25
    186a:	09 f4       	brne	.+2      	; 0x186e <Endpoint_Write_Control_Stream_LE+0x32>
    186c:	43 c0       	rjmp	.+134    	; 0x18f4 <Endpoint_Write_Control_Stream_LE+0xb8>
		  return ENDPOINT_RWCSTREAM_DeviceDisconnected;
		else if (USB_DeviceState_LCL == DEVICE_STATE_Suspended)
    186e:	95 30       	cpi	r25, 0x05	; 5
    1870:	09 f4       	brne	.+2      	; 0x1874 <Endpoint_Write_Control_Stream_LE+0x38>
    1872:	42 c0       	rjmp	.+132    	; 0x18f8 <Endpoint_Write_Control_Stream_LE+0xbc>
			 *  \return Boolean \c true if the selected endpoint has received a SETUP packet, \c false otherwise.
			 */
			static inline bool Endpoint_IsSETUPReceived(void) ATTR_WARN_UNUSED_RESULT ATTR_ALWAYS_INLINE;
			static inline bool Endpoint_IsSETUPReceived(void)
			{
				return ((UEINTX & (1 << RXSTPI)) ? true : false);
    1874:	90 91 e8 00 	lds	r25, 0x00E8
		  return ENDPOINT_RWCSTREAM_BusSuspended;
		else if (Endpoint_IsSETUPReceived())
    1878:	93 fd       	sbrc	r25, 3
    187a:	3a c0       	rjmp	.+116    	; 0x18f0 <Endpoint_Write_Control_Stream_LE+0xb4>
			 *  \return Boolean \c true if current endpoint is has received an OUT packet, \c false otherwise.
			 */
			static inline bool Endpoint_IsOUTReceived(void) ATTR_WARN_UNUSED_RESULT ATTR_ALWAYS_INLINE;
			static inline bool Endpoint_IsOUTReceived(void)
			{
				return ((UEINTX & (1 << RXOUTI)) ? true : false);
    187c:	90 91 e8 00 	lds	r25, 0x00E8
		  return ENDPOINT_RWCSTREAM_HostAborted;
		else if (Endpoint_IsOUTReceived())
    1880:	92 fd       	sbrc	r25, 2
    1882:	30 c0       	rjmp	.+96     	; 0x18e4 <Endpoint_Write_Control_Stream_LE+0xa8>
			 *  \return Boolean \c true if the current endpoint is ready for an IN packet, \c false otherwise.
			 */
			static inline bool Endpoint_IsINReady(void) ATTR_WARN_UNUSED_RESULT ATTR_ALWAYS_INLINE;
			static inline bool Endpoint_IsINReady(void)
			{
				return ((UEINTX & (1 << TXINI)) ? true : false);
    1884:	90 91 e8 00 	lds	r25, 0x00E8
		  break;

		if (Endpoint_IsINReady())
    1888:	90 ff       	sbrs	r25, 0
    188a:	20 c0       	rjmp	.+64     	; 0x18cc <Endpoint_Write_Control_Stream_LE+0x90>
				#if (defined(USB_SERIES_6_AVR) || defined(USB_SERIES_7_AVR))
					return UEBCX;
				#elif defined(USB_SERIES_4_AVR)
					return (((uint16_t)UEBCHX << 8) | UEBCLX);
				#elif defined(USB_SERIES_2_AVR)
					return UEBCLX;
    188c:	80 91 f2 00 	lds	r24, 0x00F2
    1890:	90 e0       	ldi	r25, 0x00	; 0
		{
			uint16_t BytesInEndpoint = Endpoint_BytesInEndpoint();

			while (Length && (BytesInEndpoint < USB_Device_ControlEndpointSize))
    1892:	f9 01       	movw	r30, r18
  this software.
*/

#if defined(TEMPLATE_FUNC_NAME)

uint8_t TEMPLATE_FUNC_NAME (const void* const Buffer,
    1894:	82 1b       	sub	r24, r18
    1896:	93 0b       	sbc	r25, r19

		if (Endpoint_IsINReady())
		{
			uint16_t BytesInEndpoint = Endpoint_BytesInEndpoint();

			while (Length && (BytesInEndpoint < USB_Device_ControlEndpointSize))
    1898:	05 c0       	rjmp	.+10     	; 0x18a4 <Endpoint_Write_Control_Stream_LE+0x68>
			{
				TEMPLATE_TRANSFER_BYTE(DataStream);
    189a:	21 91       	ld	r18, Z+
			 *  \param[in] Data  Data to write into the the currently selected endpoint's FIFO buffer.
			 */
			static inline void Endpoint_Write_8(const uint8_t Data) ATTR_ALWAYS_INLINE;
			static inline void Endpoint_Write_8(const uint8_t Data)
			{
				UEDATX = Data;
    189c:	20 93 f1 00 	sts	0x00F1, r18
				TEMPLATE_BUFFER_MOVE(DataStream, 1);
				Length--;
    18a0:	61 50       	subi	r22, 0x01	; 1
    18a2:	71 09       	sbc	r23, r1
  this software.
*/

#if defined(TEMPLATE_FUNC_NAME)

uint8_t TEMPLATE_FUNC_NAME (const void* const Buffer,
    18a4:	9f 01       	movw	r18, r30
    18a6:	28 0f       	add	r18, r24
    18a8:	39 1f       	adc	r19, r25

		if (Endpoint_IsINReady())
		{
			uint16_t BytesInEndpoint = Endpoint_BytesInEndpoint();

			while (Length && (BytesInEndpoint < USB_Device_ControlEndpointSize))
    18aa:	61 15       	cp	r22, r1
    18ac:	71 05       	cpc	r23, r1
    18ae:	19 f0       	breq	.+6      	; 0x18b6 <Endpoint_Write_Control_Stream_LE+0x7a>
    18b0:	28 30       	cpi	r18, 0x08	; 8
    18b2:	31 05       	cpc	r19, r1
    18b4:	90 f3       	brcs	.-28     	; 0x189a <Endpoint_Write_Control_Stream_LE+0x5e>
				TEMPLATE_BUFFER_MOVE(DataStream, 1);
				Length--;
				BytesInEndpoint++;
			}

			LastPacketFull = (BytesInEndpoint == USB_Device_ControlEndpointSize);
    18b6:	81 e0       	ldi	r24, 0x01	; 1
    18b8:	28 30       	cpi	r18, 0x08	; 8
    18ba:	31 05       	cpc	r19, r1
    18bc:	09 f0       	breq	.+2      	; 0x18c0 <Endpoint_Write_Control_Stream_LE+0x84>
    18be:	80 e0       	ldi	r24, 0x00	; 0
			 */
			static inline void Endpoint_ClearIN(void) ATTR_ALWAYS_INLINE;
			static inline void Endpoint_ClearIN(void)
			{
				#if !defined(CONTROL_ONLY_DEVICE)
					UEINTX &= ~((1 << TXINI) | (1 << FIFOCON));
    18c0:	90 91 e8 00 	lds	r25, 0x00E8
    18c4:	9e 77       	andi	r25, 0x7E	; 126
    18c6:	90 93 e8 00 	sts	0x00E8, r25
    18ca:	9f 01       	movw	r18, r30
	if (Length > USB_ControlRequest.wLength)
	  Length = USB_ControlRequest.wLength;
	else if (!(Length))
	  Endpoint_ClearIN();

	while (Length || LastPacketFull)
    18cc:	61 15       	cp	r22, r1
    18ce:	71 05       	cpc	r23, r1
    18d0:	49 f6       	brne	.-110    	; 0x1864 <Endpoint_Write_Control_Stream_LE+0x28>
    18d2:	81 11       	cpse	r24, r1
    18d4:	c7 cf       	rjmp	.-114    	; 0x1864 <Endpoint_Write_Control_Stream_LE+0x28>
    18d6:	06 c0       	rjmp	.+12     	; 0x18e4 <Endpoint_Write_Control_Stream_LE+0xa8>
		}
	}

	while (!(Endpoint_IsOUTReceived()))
	{
		uint8_t USB_DeviceState_LCL = USB_DeviceState;
    18d8:	80 91 f3 01 	lds	r24, 0x01F3

		if (USB_DeviceState_LCL == DEVICE_STATE_Unattached)
    18dc:	88 23       	and	r24, r24
    18de:	51 f0       	breq	.+20     	; 0x18f4 <Endpoint_Write_Control_Stream_LE+0xb8>
		  return ENDPOINT_RWCSTREAM_DeviceDisconnected;
		else if (USB_DeviceState_LCL == DEVICE_STATE_Suspended)
    18e0:	85 30       	cpi	r24, 0x05	; 5
    18e2:	51 f0       	breq	.+20     	; 0x18f8 <Endpoint_Write_Control_Stream_LE+0xbc>
			 *  \return Boolean \c true if current endpoint is has received an OUT packet, \c false otherwise.
			 */
			static inline bool Endpoint_IsOUTReceived(void) ATTR_WARN_UNUSED_RESULT ATTR_ALWAYS_INLINE;
			static inline bool Endpoint_IsOUTReceived(void)
			{
				return ((UEINTX & (1 << RXOUTI)) ? true : false);
    18e4:	80 91 e8 00 	lds	r24, 0x00E8
			LastPacketFull = (BytesInEndpoint == USB_Device_ControlEndpointSize);
			Endpoint_ClearIN();
		}
	}

	while (!(Endpoint_IsOUTReceived()))
    18e8:	82 ff       	sbrs	r24, 2
    18ea:	f6 cf       	rjmp	.-20     	; 0x18d8 <Endpoint_Write_Control_Stream_LE+0x9c>
		  return ENDPOINT_RWCSTREAM_DeviceDisconnected;
		else if (USB_DeviceState_LCL == DEVICE_STATE_Suspended)
		  return ENDPOINT_RWCSTREAM_BusSuspended;
	}

	return ENDPOINT_RWCSTREAM_NoError;
    18ec:	80 e0       	ldi	r24, 0x00	; 0
    18ee:	08 95       	ret
		if (USB_DeviceState_LCL == DEVICE_STATE_Unattached)
		  return ENDPOINT_RWCSTREAM_DeviceDisconnected;
		else if (USB_DeviceState_LCL == DEVICE_STATE_Suspended)
		  return ENDPOINT_RWCSTREAM_BusSuspended;
		else if (Endpoint_IsSETUPReceived())
		  return ENDPOINT_RWCSTREAM_HostAborted;
    18f0:	81 e0       	ldi	r24, 0x01	; 1
    18f2:	08 95       	ret
	while (Length || LastPacketFull)
	{
		uint8_t USB_DeviceState_LCL = USB_DeviceState;

		if (USB_DeviceState_LCL == DEVICE_STATE_Unattached)
		  return ENDPOINT_RWCSTREAM_DeviceDisconnected;
    18f4:	82 e0       	ldi	r24, 0x02	; 2
    18f6:	08 95       	ret
		else if (USB_DeviceState_LCL == DEVICE_STATE_Suspended)
		  return ENDPOINT_RWCSTREAM_BusSuspended;
    18f8:	83 e0       	ldi	r24, 0x03	; 3
		else if (USB_DeviceState_LCL == DEVICE_STATE_Suspended)
		  return ENDPOINT_RWCSTREAM_BusSuspended;
	}

	return ENDPOINT_RWCSTREAM_NoError;
}
    18fa:	08 95       	ret

000018fc <Endpoint_Read_Control_Stream_LE>:
uint8_t TEMPLATE_FUNC_NAME (void* const Buffer,
                            uint16_t Length)
{
	uint8_t* DataStream = ((uint8_t*)Buffer + TEMPLATE_BUFFER_OFFSET(Length));

	if (!(Length))
    18fc:	61 15       	cp	r22, r1
    18fe:	71 05       	cpc	r23, r1
    1900:	29 f4       	brne	.+10     	; 0x190c <Endpoint_Read_Control_Stream_LE+0x10>
			 */
			static inline void Endpoint_ClearOUT(void) ATTR_ALWAYS_INLINE;
			static inline void Endpoint_ClearOUT(void)
			{
				#if !defined(CONTROL_ONLY_DEVICE)
					UEINTX &= ~((1 << RXOUTI) | (1 << FIFOCON));
    1902:	20 91 e8 00 	lds	r18, 0x00E8
    1906:	2b 77       	andi	r18, 0x7B	; 123
    1908:	20 93 e8 00 	sts	0x00E8, r18

#if defined(TEMPLATE_FUNC_NAME)

uint8_t TEMPLATE_FUNC_NAME (void* const Buffer,
                            uint16_t Length)
{
    190c:	9c 01       	movw	r18, r24
    190e:	21 c0       	rjmp	.+66     	; 0x1952 <Endpoint_Read_Control_Stream_LE+0x56>
	if (!(Length))
	  Endpoint_ClearOUT();

	while (Length)
	{
		uint8_t USB_DeviceState_LCL = USB_DeviceState;
    1910:	80 91 f3 01 	lds	r24, 0x01F3

		if (USB_DeviceState_LCL == DEVICE_STATE_Unattached)
    1914:	88 23       	and	r24, r24
    1916:	81 f1       	breq	.+96     	; 0x1978 <Endpoint_Read_Control_Stream_LE+0x7c>
		  return ENDPOINT_RWCSTREAM_DeviceDisconnected;
		else if (USB_DeviceState_LCL == DEVICE_STATE_Suspended)
    1918:	85 30       	cpi	r24, 0x05	; 5
    191a:	41 f1       	breq	.+80     	; 0x196c <Endpoint_Read_Control_Stream_LE+0x70>
			 *  \return Boolean \c true if the selected endpoint has received a SETUP packet, \c false otherwise.
			 */
			static inline bool Endpoint_IsSETUPReceived(void) ATTR_WARN_UNUSED_RESULT ATTR_ALWAYS_INLINE;
			static inline bool Endpoint_IsSETUPReceived(void)
			{
				return ((UEINTX & (1 << RXSTPI)) ? true : false);
    191c:	80 91 e8 00 	lds	r24, 0x00E8
		  return ENDPOINT_RWCSTREAM_BusSuspended;
		else if (Endpoint_IsSETUPReceived())
    1920:	83 fd       	sbrc	r24, 3
    1922:	26 c0       	rjmp	.+76     	; 0x1970 <Endpoint_Read_Control_Stream_LE+0x74>
			 *  \return Boolean \c true if current endpoint is has received an OUT packet, \c false otherwise.
			 */
			static inline bool Endpoint_IsOUTReceived(void) ATTR_WARN_UNUSED_RESULT ATTR_ALWAYS_INLINE;
			static inline bool Endpoint_IsOUTReceived(void)
			{
				return ((UEINTX & (1 << RXOUTI)) ? true : false);
    1924:	80 91 e8 00 	lds	r24, 0x00E8
		  return ENDPOINT_RWCSTREAM_HostAborted;

		if (Endpoint_IsOUTReceived())
    1928:	82 ff       	sbrs	r24, 2
    192a:	f2 cf       	rjmp	.-28     	; 0x1910 <Endpoint_Read_Control_Stream_LE+0x14>
    192c:	f9 01       	movw	r30, r18
    192e:	07 c0       	rjmp	.+14     	; 0x193e <Endpoint_Read_Control_Stream_LE+0x42>
			 *  \return Next byte in the currently selected endpoint's FIFO buffer.
			 */
			static inline uint8_t Endpoint_Read_8(void) ATTR_WARN_UNUSED_RESULT ATTR_ALWAYS_INLINE;
			static inline uint8_t Endpoint_Read_8(void)
			{
				return UEDATX;
    1930:	80 91 f1 00 	lds	r24, 0x00F1
		{
			while (Length && Endpoint_BytesInEndpoint())
			{
				TEMPLATE_TRANSFER_BYTE(DataStream);
    1934:	81 93       	st	Z+, r24
				TEMPLATE_BUFFER_MOVE(DataStream, 1);
    1936:	9f 01       	movw	r18, r30
				Length--;
    1938:	61 50       	subi	r22, 0x01	; 1
    193a:	71 09       	sbc	r23, r1
		else if (Endpoint_IsSETUPReceived())
		  return ENDPOINT_RWCSTREAM_HostAborted;

		if (Endpoint_IsOUTReceived())
		{
			while (Length && Endpoint_BytesInEndpoint())
    193c:	29 f0       	breq	.+10     	; 0x1948 <Endpoint_Read_Control_Stream_LE+0x4c>
    193e:	9f 01       	movw	r18, r30
				#if (defined(USB_SERIES_6_AVR) || defined(USB_SERIES_7_AVR))
					return UEBCX;
				#elif defined(USB_SERIES_4_AVR)
					return (((uint16_t)UEBCHX << 8) | UEBCLX);
				#elif defined(USB_SERIES_2_AVR)
					return UEBCLX;
    1940:	80 91 f2 00 	lds	r24, 0x00F2
    1944:	81 11       	cpse	r24, r1
    1946:	f4 cf       	rjmp	.-24     	; 0x1930 <Endpoint_Read_Control_Stream_LE+0x34>
			 */
			static inline void Endpoint_ClearOUT(void) ATTR_ALWAYS_INLINE;
			static inline void Endpoint_ClearOUT(void)
			{
				#if !defined(CONTROL_ONLY_DEVICE)
					UEINTX &= ~((1 << RXOUTI) | (1 << FIFOCON));
    1948:	80 91 e8 00 	lds	r24, 0x00E8
    194c:	8b 77       	andi	r24, 0x7B	; 123
    194e:	80 93 e8 00 	sts	0x00E8, r24
	uint8_t* DataStream = ((uint8_t*)Buffer + TEMPLATE_BUFFER_OFFSET(Length));

	if (!(Length))
	  Endpoint_ClearOUT();

	while (Length)
    1952:	61 15       	cp	r22, r1
    1954:	71 05       	cpc	r23, r1
    1956:	e1 f6       	brne	.-72     	; 0x1910 <Endpoint_Read_Control_Stream_LE+0x14>
			 *  \return Boolean \c true if the current endpoint is ready for an IN packet, \c false otherwise.
			 */
			static inline bool Endpoint_IsINReady(void) ATTR_WARN_UNUSED_RESULT ATTR_ALWAYS_INLINE;
			static inline bool Endpoint_IsINReady(void)
			{
				return ((UEINTX & (1 << TXINI)) ? true : false);
    1958:	80 91 e8 00 	lds	r24, 0x00E8

			Endpoint_ClearOUT();
		}
	}

	while (!(Endpoint_IsINReady()))
    195c:	80 fd       	sbrc	r24, 0
    195e:	0a c0       	rjmp	.+20     	; 0x1974 <Endpoint_Read_Control_Stream_LE+0x78>
	{
		uint8_t USB_DeviceState_LCL = USB_DeviceState;
    1960:	80 91 f3 01 	lds	r24, 0x01F3

		if (USB_DeviceState_LCL == DEVICE_STATE_Unattached)
    1964:	88 23       	and	r24, r24
    1966:	41 f0       	breq	.+16     	; 0x1978 <Endpoint_Read_Control_Stream_LE+0x7c>
		  return ENDPOINT_RWCSTREAM_DeviceDisconnected;
		else if (USB_DeviceState_LCL == DEVICE_STATE_Suspended)
    1968:	85 30       	cpi	r24, 0x05	; 5
    196a:	b1 f7       	brne	.-20     	; 0x1958 <Endpoint_Read_Control_Stream_LE+0x5c>
		uint8_t USB_DeviceState_LCL = USB_DeviceState;

		if (USB_DeviceState_LCL == DEVICE_STATE_Unattached)
		  return ENDPOINT_RWCSTREAM_DeviceDisconnected;
		else if (USB_DeviceState_LCL == DEVICE_STATE_Suspended)
		  return ENDPOINT_RWCSTREAM_BusSuspended;
    196c:	83 e0       	ldi	r24, 0x03	; 3
    196e:	08 95       	ret
		else if (Endpoint_IsSETUPReceived())
		  return ENDPOINT_RWCSTREAM_HostAborted;
    1970:	81 e0       	ldi	r24, 0x01	; 1
    1972:	08 95       	ret
		  return ENDPOINT_RWCSTREAM_DeviceDisconnected;
		else if (USB_DeviceState_LCL == DEVICE_STATE_Suspended)
		  return ENDPOINT_RWCSTREAM_BusSuspended;
	}

	return ENDPOINT_RWCSTREAM_NoError;
    1974:	80 e0       	ldi	r24, 0x00	; 0
    1976:	08 95       	ret
	while (Length)
	{
		uint8_t USB_DeviceState_LCL = USB_DeviceState;

		if (USB_DeviceState_LCL == DEVICE_STATE_Unattached)
		  return ENDPOINT_RWCSTREAM_DeviceDisconnected;
    1978:	82 e0       	ldi	r24, 0x02	; 2
		else if (USB_DeviceState_LCL == DEVICE_STATE_Suspended)
		  return ENDPOINT_RWCSTREAM_BusSuspended;
	}

	return ENDPOINT_RWCSTREAM_NoError;
}
    197a:	08 95       	ret

0000197c <Endpoint_Write_Control_PStream_LE>:
                            uint16_t Length)
{
	uint8_t* DataStream     = ((uint8_t*)Buffer + TEMPLATE_BUFFER_OFFSET(Length));
	bool     LastPacketFull = false;

	if (Length > USB_ControlRequest.wLength)
    197c:	20 91 fa 01 	lds	r18, 0x01FA
    1980:	30 91 fb 01 	lds	r19, 0x01FB
    1984:	26 17       	cp	r18, r22
    1986:	37 07       	cpc	r19, r23
    1988:	48 f0       	brcs	.+18     	; 0x199c <Endpoint_Write_Control_PStream_LE+0x20>
	  Length = USB_ControlRequest.wLength;
	else if (!(Length))
    198a:	61 15       	cp	r22, r1
    198c:	71 05       	cpc	r23, r1
    198e:	39 f4       	brne	.+14     	; 0x199e <Endpoint_Write_Control_PStream_LE+0x22>
			 */
			static inline void Endpoint_ClearIN(void) ATTR_ALWAYS_INLINE;
			static inline void Endpoint_ClearIN(void)
			{
				#if !defined(CONTROL_ONLY_DEVICE)
					UEINTX &= ~((1 << TXINI) | (1 << FIFOCON));
    1990:	20 91 e8 00 	lds	r18, 0x00E8
    1994:	2e 77       	andi	r18, 0x7E	; 126
    1996:	20 93 e8 00 	sts	0x00E8, r18
    199a:	01 c0       	rjmp	.+2      	; 0x199e <Endpoint_Write_Control_PStream_LE+0x22>
                            uint16_t Length)
{
	uint8_t* DataStream     = ((uint8_t*)Buffer + TEMPLATE_BUFFER_OFFSET(Length));
	bool     LastPacketFull = false;

	if (Length > USB_ControlRequest.wLength)
    199c:	b9 01       	movw	r22, r18

		if (Endpoint_IsINReady())
		{
			uint16_t BytesInEndpoint = Endpoint_BytesInEndpoint();

			while (Length && (BytesInEndpoint < USB_Device_ControlEndpointSize))
    199e:	9c 01       	movw	r18, r24
    19a0:	80 e0       	ldi	r24, 0x00	; 0
    19a2:	35 c0       	rjmp	.+106    	; 0x1a0e <Endpoint_Write_Control_PStream_LE+0x92>
	else if (!(Length))
	  Endpoint_ClearIN();

	while (Length || LastPacketFull)
	{
		uint8_t USB_DeviceState_LCL = USB_DeviceState;
    19a4:	90 91 f3 01 	lds	r25, 0x01F3

		if (USB_DeviceState_LCL == DEVICE_STATE_Unattached)
    19a8:	99 23       	and	r25, r25
    19aa:	09 f4       	brne	.+2      	; 0x19ae <Endpoint_Write_Control_PStream_LE+0x32>
    19ac:	44 c0       	rjmp	.+136    	; 0x1a36 <Endpoint_Write_Control_PStream_LE+0xba>
		  return ENDPOINT_RWCSTREAM_DeviceDisconnected;
		else if (USB_DeviceState_LCL == DEVICE_STATE_Suspended)
    19ae:	95 30       	cpi	r25, 0x05	; 5
    19b0:	09 f4       	brne	.+2      	; 0x19b4 <Endpoint_Write_Control_PStream_LE+0x38>
    19b2:	43 c0       	rjmp	.+134    	; 0x1a3a <Endpoint_Write_Control_PStream_LE+0xbe>
			 *  \return Boolean \c true if the selected endpoint has received a SETUP packet, \c false otherwise.
			 */
			static inline bool Endpoint_IsSETUPReceived(void) ATTR_WARN_UNUSED_RESULT ATTR_ALWAYS_INLINE;
			static inline bool Endpoint_IsSETUPReceived(void)
			{
				return ((UEINTX & (1 << RXSTPI)) ? true : false);
    19b4:	90 91 e8 00 	lds	r25, 0x00E8
		  return ENDPOINT_RWCSTREAM_BusSuspended;
		else if (Endpoint_IsSETUPReceived())
    19b8:	93 fd       	sbrc	r25, 3
    19ba:	3b c0       	rjmp	.+118    	; 0x1a32 <Endpoint_Write_Control_PStream_LE+0xb6>
			 *  \return Boolean \c true if current endpoint is has received an OUT packet, \c false otherwise.
			 */
			static inline bool Endpoint_IsOUTReceived(void) ATTR_WARN_UNUSED_RESULT ATTR_ALWAYS_INLINE;
			static inline bool Endpoint_IsOUTReceived(void)
			{
				return ((UEINTX & (1 << RXOUTI)) ? true : false);
    19bc:	90 91 e8 00 	lds	r25, 0x00E8
		  return ENDPOINT_RWCSTREAM_HostAborted;
		else if (Endpoint_IsOUTReceived())
    19c0:	92 fd       	sbrc	r25, 2
    19c2:	31 c0       	rjmp	.+98     	; 0x1a26 <Endpoint_Write_Control_PStream_LE+0xaa>
			 *  \return Boolean \c true if the current endpoint is ready for an IN packet, \c false otherwise.
			 */
			static inline bool Endpoint_IsINReady(void) ATTR_WARN_UNUSED_RESULT ATTR_ALWAYS_INLINE;
			static inline bool Endpoint_IsINReady(void)
			{
				return ((UEINTX & (1 << TXINI)) ? true : false);
    19c4:	90 91 e8 00 	lds	r25, 0x00E8
		  break;

		if (Endpoint_IsINReady())
    19c8:	90 ff       	sbrs	r25, 0
    19ca:	21 c0       	rjmp	.+66     	; 0x1a0e <Endpoint_Write_Control_PStream_LE+0x92>
				#if (defined(USB_SERIES_6_AVR) || defined(USB_SERIES_7_AVR))
					return UEBCX;
				#elif defined(USB_SERIES_4_AVR)
					return (((uint16_t)UEBCHX << 8) | UEBCLX);
				#elif defined(USB_SERIES_2_AVR)
					return UEBCLX;
    19cc:	80 91 f2 00 	lds	r24, 0x00F2
    19d0:	90 e0       	ldi	r25, 0x00	; 0
		{
			uint16_t BytesInEndpoint = Endpoint_BytesInEndpoint();

			while (Length && (BytesInEndpoint < USB_Device_ControlEndpointSize))
    19d2:	f9 01       	movw	r30, r18
  this software.
*/

#if defined(TEMPLATE_FUNC_NAME)

uint8_t TEMPLATE_FUNC_NAME (const void* const Buffer,
    19d4:	82 1b       	sub	r24, r18
    19d6:	93 0b       	sbc	r25, r19

		if (Endpoint_IsINReady())
		{
			uint16_t BytesInEndpoint = Endpoint_BytesInEndpoint();

			while (Length && (BytesInEndpoint < USB_Device_ControlEndpointSize))
    19d8:	06 c0       	rjmp	.+12     	; 0x19e6 <Endpoint_Write_Control_PStream_LE+0x6a>
			{
				TEMPLATE_TRANSFER_BYTE(DataStream);
    19da:	24 91       	lpm	r18, Z+
			 *  \param[in] Data  Data to write into the the currently selected endpoint's FIFO buffer.
			 */
			static inline void Endpoint_Write_8(const uint8_t Data) ATTR_ALWAYS_INLINE;
			static inline void Endpoint_Write_8(const uint8_t Data)
			{
				UEDATX = Data;
    19dc:	20 93 f1 00 	sts	0x00F1, r18
				TEMPLATE_BUFFER_MOVE(DataStream, 1);
    19e0:	31 96       	adiw	r30, 0x01	; 1
				Length--;
    19e2:	61 50       	subi	r22, 0x01	; 1
    19e4:	71 09       	sbc	r23, r1
  this software.
*/

#if defined(TEMPLATE_FUNC_NAME)

uint8_t TEMPLATE_FUNC_NAME (const void* const Buffer,
    19e6:	9c 01       	movw	r18, r24
    19e8:	2e 0f       	add	r18, r30
    19ea:	3f 1f       	adc	r19, r31

		if (Endpoint_IsINReady())
		{
			uint16_t BytesInEndpoint = Endpoint_BytesInEndpoint();

			while (Length && (BytesInEndpoint < USB_Device_ControlEndpointSize))
    19ec:	61 15       	cp	r22, r1
    19ee:	71 05       	cpc	r23, r1
    19f0:	19 f0       	breq	.+6      	; 0x19f8 <Endpoint_Write_Control_PStream_LE+0x7c>
    19f2:	28 30       	cpi	r18, 0x08	; 8
    19f4:	31 05       	cpc	r19, r1
    19f6:	88 f3       	brcs	.-30     	; 0x19da <Endpoint_Write_Control_PStream_LE+0x5e>
				TEMPLATE_BUFFER_MOVE(DataStream, 1);
				Length--;
				BytesInEndpoint++;
			}

			LastPacketFull = (BytesInEndpoint == USB_Device_ControlEndpointSize);
    19f8:	81 e0       	ldi	r24, 0x01	; 1
    19fa:	28 30       	cpi	r18, 0x08	; 8
    19fc:	31 05       	cpc	r19, r1
    19fe:	09 f0       	breq	.+2      	; 0x1a02 <Endpoint_Write_Control_PStream_LE+0x86>
    1a00:	80 e0       	ldi	r24, 0x00	; 0
			 */
			static inline void Endpoint_ClearIN(void) ATTR_ALWAYS_INLINE;
			static inline void Endpoint_ClearIN(void)
			{
				#if !defined(CONTROL_ONLY_DEVICE)
					UEINTX &= ~((1 << TXINI) | (1 << FIFOCON));
    1a02:	90 91 e8 00 	lds	r25, 0x00E8
    1a06:	9e 77       	andi	r25, 0x7E	; 126
    1a08:	90 93 e8 00 	sts	0x00E8, r25
    1a0c:	9f 01       	movw	r18, r30
	if (Length > USB_ControlRequest.wLength)
	  Length = USB_ControlRequest.wLength;
	else if (!(Length))
	  Endpoint_ClearIN();

	while (Length || LastPacketFull)
    1a0e:	61 15       	cp	r22, r1
    1a10:	71 05       	cpc	r23, r1
    1a12:	41 f6       	brne	.-112    	; 0x19a4 <Endpoint_Write_Control_PStream_LE+0x28>
    1a14:	81 11       	cpse	r24, r1
    1a16:	c6 cf       	rjmp	.-116    	; 0x19a4 <Endpoint_Write_Control_PStream_LE+0x28>
    1a18:	06 c0       	rjmp	.+12     	; 0x1a26 <Endpoint_Write_Control_PStream_LE+0xaa>
		}
	}

	while (!(Endpoint_IsOUTReceived()))
	{
		uint8_t USB_DeviceState_LCL = USB_DeviceState;
    1a1a:	80 91 f3 01 	lds	r24, 0x01F3

		if (USB_DeviceState_LCL == DEVICE_STATE_Unattached)
    1a1e:	88 23       	and	r24, r24
    1a20:	51 f0       	breq	.+20     	; 0x1a36 <Endpoint_Write_Control_PStream_LE+0xba>
		  return ENDPOINT_RWCSTREAM_DeviceDisconnected;
		else if (USB_DeviceState_LCL == DEVICE_STATE_Suspended)
    1a22:	85 30       	cpi	r24, 0x05	; 5
    1a24:	51 f0       	breq	.+20     	; 0x1a3a <Endpoint_Write_Control_PStream_LE+0xbe>
			 *  \return Boolean \c true if current endpoint is has received an OUT packet, \c false otherwise.
			 */
			static inline bool Endpoint_IsOUTReceived(void) ATTR_WARN_UNUSED_RESULT ATTR_ALWAYS_INLINE;
			static inline bool Endpoint_IsOUTReceived(void)
			{
				return ((UEINTX & (1 << RXOUTI)) ? true : false);
    1a26:	80 91 e8 00 	lds	r24, 0x00E8
			LastPacketFull = (BytesInEndpoint == USB_Device_ControlEndpointSize);
			Endpoint_ClearIN();
		}
	}

	while (!(Endpoint_IsOUTReceived()))
    1a2a:	82 ff       	sbrs	r24, 2
    1a2c:	f6 cf       	rjmp	.-20     	; 0x1a1a <Endpoint_Write_Control_PStream_LE+0x9e>
		  return ENDPOINT_RWCSTREAM_DeviceDisconnected;
		else if (USB_DeviceState_LCL == DEVICE_STATE_Suspended)
		  return ENDPOINT_RWCSTREAM_BusSuspended;
	}

	return ENDPOINT_RWCSTREAM_NoError;
    1a2e:	80 e0       	ldi	r24, 0x00	; 0
    1a30:	08 95       	ret
		if (USB_DeviceState_LCL == DEVICE_STATE_Unattached)
		  return ENDPOINT_RWCSTREAM_DeviceDisconnected;
		else if (USB_DeviceState_LCL == DEVICE_STATE_Suspended)
		  return ENDPOINT_RWCSTREAM_BusSuspended;
		else if (Endpoint_IsSETUPReceived())
		  return ENDPOINT_RWCSTREAM_HostAborted;
    1a32:	81 e0       	ldi	r24, 0x01	; 1
    1a34:	08 95       	ret
	while (Length || LastPacketFull)
	{
		uint8_t USB_DeviceState_LCL = USB_DeviceState;

		if (USB_DeviceState_LCL == DEVICE_STATE_Unattached)
		  return ENDPOINT_RWCSTREAM_DeviceDisconnected;
    1a36:	82 e0       	ldi	r24, 0x02	; 2
    1a38:	08 95       	ret
		else if (USB_DeviceState_LCL == DEVICE_STATE_Suspended)
		  return ENDPOINT_RWCSTREAM_BusSuspended;
    1a3a:	83 e0       	ldi	r24, 0x03	; 3
		else if (USB_DeviceState_LCL == DEVICE_STATE_Suspended)
		  return ENDPOINT_RWCSTREAM_BusSuspended;
	}

	return ENDPOINT_RWCSTREAM_NoError;
}
    1a3c:	08 95       	ret

00001a3e <Endpoint_ConfigureEndpoint_Prv>:
	UECFG0X = UECFG0XData;
	UECFG1X = UECFG1XData;

	return Endpoint_IsConfigured();
#else
	for (uint8_t EPNum = Number; EPNum < ENDPOINT_TOTAL_ENDPOINTS; EPNum++)
    1a3e:	98 2f       	mov	r25, r24
    1a40:	2c c0       	rjmp	.+88     	; 0x1a9a <Endpoint_ConfigureEndpoint_Prv+0x5c>
			 */
			static inline void Endpoint_SelectEndpoint(const uint8_t Address) ATTR_ALWAYS_INLINE;
			static inline void Endpoint_SelectEndpoint(const uint8_t Address)
			{
				#if !defined(CONTROL_ONLY_DEVICE)
					UENUM = (Address & ENDPOINT_EPNUM_MASK);
    1a42:	90 93 e9 00 	sts	0x00E9, r25
		uint8_t UECFG1XTemp;
		uint8_t UEIENXTemp;

		Endpoint_SelectEndpoint(EPNum);

		if (EPNum == Number)
    1a46:	98 17       	cp	r25, r24
    1a48:	39 f0       	breq	.+14     	; 0x1a58 <Endpoint_ConfigureEndpoint_Prv+0x1a>
			UECFG1XTemp = UECFG1XData;
			UEIENXTemp  = 0;
		}
		else
		{
			UECFG0XTemp = UECFG0X;
    1a4a:	70 91 ec 00 	lds	r23, 0x00EC
			UECFG1XTemp = UECFG1X;
    1a4e:	20 91 ed 00 	lds	r18, 0x00ED
			UEIENXTemp  = UEIENX;
    1a52:	50 91 f0 00 	lds	r21, 0x00F0
    1a56:	03 c0       	rjmp	.+6      	; 0x1a5e <Endpoint_ConfigureEndpoint_Prv+0x20>
		Endpoint_SelectEndpoint(EPNum);

		if (EPNum == Number)
		{
			UECFG0XTemp = UECFG0XData;
			UECFG1XTemp = UECFG1XData;
    1a58:	24 2f       	mov	r18, r20

		Endpoint_SelectEndpoint(EPNum);

		if (EPNum == Number)
		{
			UECFG0XTemp = UECFG0XData;
    1a5a:	76 2f       	mov	r23, r22
			UECFG1XTemp = UECFG1XData;
			UEIENXTemp  = 0;
    1a5c:	50 e0       	ldi	r21, 0x00	; 0
			UECFG0XTemp = UECFG0X;
			UECFG1XTemp = UECFG1X;
			UEIENXTemp  = UEIENX;
		}

		if (!(UECFG1XTemp & (1 << ALLOC)))
    1a5e:	21 fd       	sbrc	r18, 1
    1a60:	02 c0       	rjmp	.+4      	; 0x1a66 <Endpoint_ConfigureEndpoint_Prv+0x28>
	UECFG0X = UECFG0XData;
	UECFG1X = UECFG1XData;

	return Endpoint_IsConfigured();
#else
	for (uint8_t EPNum = Number; EPNum < ENDPOINT_TOTAL_ENDPOINTS; EPNum++)
    1a62:	9f 5f       	subi	r25, 0xFF	; 255
    1a64:	1a c0       	rjmp	.+52     	; 0x1a9a <Endpoint_ConfigureEndpoint_Prv+0x5c>
			 *  to and from a host.
			 */
			static inline void Endpoint_DisableEndpoint(void) ATTR_ALWAYS_INLINE;
			static inline void Endpoint_DisableEndpoint(void)
			{
				UECONX &= ~(1 << EPEN);
    1a66:	30 91 eb 00 	lds	r19, 0x00EB
    1a6a:	3e 7f       	andi	r19, 0xFE	; 254
    1a6c:	30 93 eb 00 	sts	0x00EB, r19

		if (!(UECFG1XTemp & (1 << ALLOC)))
		  continue;

		Endpoint_DisableEndpoint();
		UECFG1X &= ~(1 << ALLOC);
    1a70:	30 91 ed 00 	lds	r19, 0x00ED
    1a74:	3d 7f       	andi	r19, 0xFD	; 253
    1a76:	30 93 ed 00 	sts	0x00ED, r19
			 *  \note Endpoints must first be configured properly via \ref Endpoint_ConfigureEndpoint().
			 */
			static inline void Endpoint_EnableEndpoint(void) ATTR_ALWAYS_INLINE;
			static inline void Endpoint_EnableEndpoint(void)
			{
				UECONX |= (1 << EPEN);
    1a7a:	30 91 eb 00 	lds	r19, 0x00EB
    1a7e:	31 60       	ori	r19, 0x01	; 1
    1a80:	30 93 eb 00 	sts	0x00EB, r19

		Endpoint_EnableEndpoint();
		UECFG0X = UECFG0XTemp;
    1a84:	70 93 ec 00 	sts	0x00EC, r23
		UECFG1X = UECFG1XTemp;
    1a88:	20 93 ed 00 	sts	0x00ED, r18
		UEIENX  = UEIENXTemp;
    1a8c:	50 93 f0 00 	sts	0x00F0, r21
			 *  \return Boolean \c true if the currently selected endpoint has been configured, \c false otherwise.
			 */
			static inline bool Endpoint_IsConfigured(void) ATTR_WARN_UNUSED_RESULT ATTR_ALWAYS_INLINE;
			static inline bool Endpoint_IsConfigured(void)
			{
				return ((UESTA0X & (1 << CFGOK)) ? true : false);
    1a90:	20 91 ee 00 	lds	r18, 0x00EE

		if (!(Endpoint_IsConfigured()))
    1a94:	27 fd       	sbrc	r18, 7
    1a96:	e5 cf       	rjmp	.-54     	; 0x1a62 <Endpoint_ConfigureEndpoint_Prv+0x24>
    1a98:	07 c0       	rjmp	.+14     	; 0x1aa8 <Endpoint_ConfigureEndpoint_Prv+0x6a>
	UECFG0X = UECFG0XData;
	UECFG1X = UECFG1XData;

	return Endpoint_IsConfigured();
#else
	for (uint8_t EPNum = Number; EPNum < ENDPOINT_TOTAL_ENDPOINTS; EPNum++)
    1a9a:	95 30       	cpi	r25, 0x05	; 5
    1a9c:	90 f2       	brcs	.-92     	; 0x1a42 <Endpoint_ConfigureEndpoint_Prv+0x4>
			 */
			static inline void Endpoint_SelectEndpoint(const uint8_t Address) ATTR_ALWAYS_INLINE;
			static inline void Endpoint_SelectEndpoint(const uint8_t Address)
			{
				#if !defined(CONTROL_ONLY_DEVICE)
					UENUM = (Address & ENDPOINT_EPNUM_MASK);
    1a9e:	8f 70       	andi	r24, 0x0F	; 15
    1aa0:	80 93 e9 00 	sts	0x00E9, r24
		if (!(Endpoint_IsConfigured()))
		  return false;
	}

	Endpoint_SelectEndpoint(Number);
	return true;
    1aa4:	81 e0       	ldi	r24, 0x01	; 1
    1aa6:	08 95       	ret
		UECFG0X = UECFG0XTemp;
		UECFG1X = UECFG1XTemp;
		UEIENX  = UEIENXTemp;

		if (!(Endpoint_IsConfigured()))
		  return false;
    1aa8:	80 e0       	ldi	r24, 0x00	; 0
	}

	Endpoint_SelectEndpoint(Number);
	return true;
#endif
}
    1aaa:	08 95       	ret

00001aac <Endpoint_ConfigureEndpointTable>:
uint8_t USB_Device_ControlEndpointSize = ENDPOINT_CONTROLEP_DEFAULT_SIZE;
#endif

bool Endpoint_ConfigureEndpointTable(const USB_Endpoint_Table_t* const Table,
                                     const uint8_t Entries)
{
    1aac:	0f 93       	push	r16
    1aae:	1f 93       	push	r17
    1ab0:	cf 93       	push	r28
    1ab2:	df 93       	push	r29
    1ab4:	06 2f       	mov	r16, r22
    1ab6:	ec 01       	movw	r28, r24
	for (uint8_t i = 0; i < Entries; i++)
    1ab8:	10 e0       	ldi	r17, 0x00	; 0
    1aba:	2e c0       	rjmp	.+92     	; 0x1b18 <Endpoint_ConfigureEndpointTable+0x6c>
	{
		if (!(Table[i].Address))
    1abc:	98 81       	ld	r25, Y
    1abe:	91 11       	cpse	r25, r1
    1ac0:	03 c0       	rjmp	.+6      	; 0x1ac8 <Endpoint_ConfigureEndpointTable+0x1c>
#endif

bool Endpoint_ConfigureEndpointTable(const USB_Endpoint_Table_t* const Table,
                                     const uint8_t Entries)
{
	for (uint8_t i = 0; i < Entries; i++)
    1ac2:	1f 5f       	subi	r17, 0xFF	; 255
    1ac4:	25 96       	adiw	r28, 0x05	; 5
    1ac6:	28 c0       	rjmp	.+80     	; 0x1b18 <Endpoint_ConfigureEndpointTable+0x6c>
	{
		if (!(Table[i].Address))
		  continue;

		if (!(Endpoint_ConfigureEndpoint(Table[i].Address, Table[i].Type, Table[i].Size, Table[i].Banks)))
    1ac8:	2c 81       	ldd	r18, Y+4	; 0x04
    1aca:	e9 81       	ldd	r30, Y+1	; 0x01
    1acc:	fa 81       	ldd	r31, Y+2	; 0x02
    1ace:	6b 81       	ldd	r22, Y+3	; 0x03
			static inline bool Endpoint_ConfigureEndpoint(const uint8_t Address,
			                                              const uint8_t Type,
			                                              const uint16_t Size,
			                                              const uint8_t Banks)
			{
				uint8_t Number = (Address & ENDPOINT_EPNUM_MASK);
    1ad0:	89 2f       	mov	r24, r25
    1ad2:	8f 70       	andi	r24, 0x0F	; 15

				if (Number >= ENDPOINT_TOTAL_ENDPOINTS)
    1ad4:	85 30       	cpi	r24, 0x05	; 5
    1ad6:	10 f0       	brcs	.+4      	; 0x1adc <Endpoint_ConfigureEndpointTable+0x30>
		  return false;
    1ad8:	80 e0       	ldi	r24, 0x00	; 0
    1ada:	21 c0       	rjmp	.+66     	; 0x1b1e <Endpoint_ConfigureEndpointTable+0x72>
				  return false;

				return Endpoint_ConfigureEndpoint_Prv(Number,
    1adc:	22 30       	cpi	r18, 0x02	; 2
    1ade:	10 f0       	brcs	.+4      	; 0x1ae4 <Endpoint_ConfigureEndpointTable+0x38>
    1ae0:	56 e0       	ldi	r21, 0x06	; 6
    1ae2:	01 c0       	rjmp	.+2      	; 0x1ae6 <Endpoint_ConfigureEndpointTable+0x3a>
    1ae4:	52 e0       	ldi	r21, 0x02	; 2
			static inline uint8_t Endpoint_BytesToEPSizeMask(const uint16_t Bytes) ATTR_WARN_UNUSED_RESULT ATTR_CONST
			                                                                       ATTR_ALWAYS_INLINE;
			static inline uint8_t Endpoint_BytesToEPSizeMask(const uint16_t Bytes)
			{
				uint8_t  MaskVal    = 0;
				uint16_t CheckBytes = 8;
    1ae6:	28 e0       	ldi	r18, 0x08	; 8
    1ae8:	30 e0       	ldi	r19, 0x00	; 0
		/* Inline Functions: */
			static inline uint8_t Endpoint_BytesToEPSizeMask(const uint16_t Bytes) ATTR_WARN_UNUSED_RESULT ATTR_CONST
			                                                                       ATTR_ALWAYS_INLINE;
			static inline uint8_t Endpoint_BytesToEPSizeMask(const uint16_t Bytes)
			{
				uint8_t  MaskVal    = 0;
    1aea:	40 e0       	ldi	r20, 0x00	; 0
    1aec:	03 c0       	rjmp	.+6      	; 0x1af4 <Endpoint_ConfigureEndpointTable+0x48>
				uint16_t CheckBytes = 8;

				while (CheckBytes < Bytes)
				{
					MaskVal++;
    1aee:	4f 5f       	subi	r20, 0xFF	; 255
					CheckBytes <<= 1;
    1af0:	22 0f       	add	r18, r18
    1af2:	33 1f       	adc	r19, r19
			static inline uint8_t Endpoint_BytesToEPSizeMask(const uint16_t Bytes)
			{
				uint8_t  MaskVal    = 0;
				uint16_t CheckBytes = 8;

				while (CheckBytes < Bytes)
    1af4:	2e 17       	cp	r18, r30
    1af6:	3f 07       	cpc	r19, r31
    1af8:	d0 f3       	brcs	.-12     	; 0x1aee <Endpoint_ConfigureEndpointTable+0x42>
				{
					MaskVal++;
					CheckBytes <<= 1;
				}

				return (MaskVal << EPSIZE0);
    1afa:	42 95       	swap	r20
    1afc:	40 7f       	andi	r20, 0xF0	; 240
				uint8_t Number = (Address & ENDPOINT_EPNUM_MASK);

				if (Number >= ENDPOINT_TOTAL_ENDPOINTS)
				  return false;

				return Endpoint_ConfigureEndpoint_Prv(Number,
    1afe:	45 2b       	or	r20, r21
				                                      ((Type << EPTYPE0) | ((Address & ENDPOINT_DIR_IN) ? (1 << EPDIR) : 0)),
    1b00:	99 1f       	adc	r25, r25
    1b02:	99 27       	eor	r25, r25
    1b04:	99 1f       	adc	r25, r25
    1b06:	62 95       	swap	r22
    1b08:	66 0f       	add	r22, r22
    1b0a:	66 0f       	add	r22, r22
    1b0c:	60 7c       	andi	r22, 0xC0	; 192
				uint8_t Number = (Address & ENDPOINT_EPNUM_MASK);

				if (Number >= ENDPOINT_TOTAL_ENDPOINTS)
				  return false;

				return Endpoint_ConfigureEndpoint_Prv(Number,
    1b0e:	69 2b       	or	r22, r25
    1b10:	96 df       	rcall	.-212    	; 0x1a3e <Endpoint_ConfigureEndpoint_Prv>
    1b12:	81 11       	cpse	r24, r1
	for (uint8_t i = 0; i < Entries; i++)
	{
		if (!(Table[i].Address))
		  continue;

		if (!(Endpoint_ConfigureEndpoint(Table[i].Address, Table[i].Type, Table[i].Size, Table[i].Banks)))
    1b14:	d6 cf       	rjmp	.-84     	; 0x1ac2 <Endpoint_ConfigureEndpointTable+0x16>
    1b16:	e0 cf       	rjmp	.-64     	; 0x1ad8 <Endpoint_ConfigureEndpointTable+0x2c>
    1b18:	10 13       	cpse	r17, r16
#endif

bool Endpoint_ConfigureEndpointTable(const USB_Endpoint_Table_t* const Table,
                                     const uint8_t Entries)
{
	for (uint8_t i = 0; i < Entries; i++)
    1b1a:	d0 cf       	rjmp	.-96     	; 0x1abc <Endpoint_ConfigureEndpointTable+0x10>
    1b1c:	81 e0       	ldi	r24, 0x01	; 1

		if (!(Endpoint_ConfigureEndpoint(Table[i].Address, Table[i].Type, Table[i].Size, Table[i].Banks)))
		  return false;
	}

	return true;
    1b1e:	df 91       	pop	r29
}
    1b20:	cf 91       	pop	r28
    1b22:	1f 91       	pop	r17
    1b24:	0f 91       	pop	r16
    1b26:	08 95       	ret

00001b28 <Endpoint_ClearStatusStage>:
		Endpoint_DisableEndpoint();
	}
}

void Endpoint_ClearStatusStage(void)
{
    1b28:	80 91 f4 01 	lds	r24, 0x01F4
    1b2c:	87 fd       	sbrc	r24, 7
    1b2e:	05 c0       	rjmp	.+10     	; 0x1b3a <Endpoint_ClearStatusStage+0x12>
			 *  \return Boolean \c true if the current endpoint is ready for an IN packet, \c false otherwise.
			 */
			static inline bool Endpoint_IsINReady(void) ATTR_WARN_UNUSED_RESULT ATTR_ALWAYS_INLINE;
			static inline bool Endpoint_IsINReady(void)
			{
				return ((UEINTX & (1 << TXINI)) ? true : false);
    1b30:	80 91 e8 00 	lds	r24, 0x00E8

		Endpoint_ClearOUT();
	}
	else
	{
		while (!(Endpoint_IsINReady()))
    1b34:	80 ff       	sbrs	r24, 0
    1b36:	0e c0       	rjmp	.+28     	; 0x1b54 <Endpoint_ClearStatusStage+0x2c>
    1b38:	12 c0       	rjmp	.+36     	; 0x1b5e <Endpoint_ClearStatusStage+0x36>
			 *  \return Boolean \c true if current endpoint is has received an OUT packet, \c false otherwise.
			 */
			static inline bool Endpoint_IsOUTReceived(void) ATTR_WARN_UNUSED_RESULT ATTR_ALWAYS_INLINE;
			static inline bool Endpoint_IsOUTReceived(void)
			{
				return ((UEINTX & (1 << RXOUTI)) ? true : false);
    1b3a:	80 91 e8 00 	lds	r24, 0x00E8

void Endpoint_ClearStatusStage(void)
{
	if (USB_ControlRequest.bmRequestType & REQDIR_DEVICETOHOST)
	{
		while (!(Endpoint_IsOUTReceived()))
    1b3e:	82 fd       	sbrc	r24, 2
    1b40:	05 c0       	rjmp	.+10     	; 0x1b4c <Endpoint_ClearStatusStage+0x24>
		{
			if (USB_DeviceState == DEVICE_STATE_Unattached)
    1b42:	80 91 f3 01 	lds	r24, 0x01F3
    1b46:	81 11       	cpse	r24, r1
    1b48:	f8 cf       	rjmp	.-16     	; 0x1b3a <Endpoint_ClearStatusStage+0x12>
    1b4a:	08 95       	ret
			 */
			static inline void Endpoint_ClearOUT(void) ATTR_ALWAYS_INLINE;
			static inline void Endpoint_ClearOUT(void)
			{
				#if !defined(CONTROL_ONLY_DEVICE)
					UEINTX &= ~((1 << RXOUTI) | (1 << FIFOCON));
    1b4c:	80 91 e8 00 	lds	r24, 0x00E8
    1b50:	8b 77       	andi	r24, 0x7B	; 123
    1b52:	08 c0       	rjmp	.+16     	; 0x1b64 <Endpoint_ClearStatusStage+0x3c>
	}
	else
	{
		while (!(Endpoint_IsINReady()))
		{
			if (USB_DeviceState == DEVICE_STATE_Unattached)
    1b54:	80 91 f3 01 	lds	r24, 0x01F3
    1b58:	81 11       	cpse	r24, r1
    1b5a:	ea cf       	rjmp	.-44     	; 0x1b30 <Endpoint_ClearStatusStage+0x8>
    1b5c:	08 95       	ret
			 */
			static inline void Endpoint_ClearIN(void) ATTR_ALWAYS_INLINE;
			static inline void Endpoint_ClearIN(void)
			{
				#if !defined(CONTROL_ONLY_DEVICE)
					UEINTX &= ~((1 << TXINI) | (1 << FIFOCON));
    1b5e:	80 91 e8 00 	lds	r24, 0x00E8
    1b62:	8e 77       	andi	r24, 0x7E	; 126
    1b64:	80 93 e8 00 	sts	0x00E8, r24
    1b68:	08 95       	ret

00001b6a <Endpoint_WaitUntilReady>:
			 *  \return Current USB frame number from the USB controller.
			 */
			static inline uint16_t USB_Device_GetFrameNumber(void) ATTR_ALWAYS_INLINE ATTR_WARN_UNUSED_RESULT;
			static inline uint16_t USB_Device_GetFrameNumber(void)
			{
				return UDFNUM;
    1b6a:	80 91 e4 00 	lds	r24, 0x00E4
    1b6e:	90 91 e5 00 	lds	r25, 0x00E5
    1b72:	45 e6       	ldi	r20, 0x65	; 101
			 *  \return The currently selected endpoint's direction, as a \c ENDPOINT_DIR_* mask.
			 */
			static inline uint8_t Endpoint_GetEndpointDirection(void) ATTR_WARN_UNUSED_RESULT ATTR_ALWAYS_INLINE;
			static inline uint8_t Endpoint_GetEndpointDirection(void)
			{
				return (UECFG0X & (1 << EPDIR)) ? ENDPOINT_DIR_IN : ENDPOINT_DIR_OUT;
    1b74:	20 91 ec 00 	lds	r18, 0x00EC
    1b78:	20 fd       	sbrc	r18, 0
    1b7a:	1f c0       	rjmp	.+62     	; 0x1bba <Endpoint_WaitUntilReady+0x50>
    1b7c:	23 c0       	rjmp	.+70     	; 0x1bc4 <Endpoint_WaitUntilReady+0x5a>
		{
			if (Endpoint_IsOUTReceived())
			  return ENDPOINT_READYWAIT_NoError;
		}

		uint8_t USB_DeviceState_LCL = USB_DeviceState;
    1b7e:	20 91 f3 01 	lds	r18, 0x01F3

		if (USB_DeviceState_LCL == DEVICE_STATE_Unattached)
    1b82:	22 23       	and	r18, r18
    1b84:	91 f0       	breq	.+36     	; 0x1baa <Endpoint_WaitUntilReady+0x40>
		  return ENDPOINT_READYWAIT_DeviceDisconnected;
		else if (USB_DeviceState_LCL == DEVICE_STATE_Suspended)
    1b86:	25 30       	cpi	r18, 0x05	; 5
    1b88:	91 f0       	breq	.+36     	; 0x1bae <Endpoint_WaitUntilReady+0x44>
			 *  \return Boolean \c true if the currently selected endpoint is stalled, \c false otherwise.
			 */
			static inline bool Endpoint_IsStalled(void) ATTR_WARN_UNUSED_RESULT ATTR_ALWAYS_INLINE;
			static inline bool Endpoint_IsStalled(void)
			{
				return ((UECONX & (1 << STALLRQ)) ? true : false);
    1b8a:	20 91 eb 00 	lds	r18, 0x00EB
		  return ENDPOINT_READYWAIT_BusSuspended;
		else if (Endpoint_IsStalled())
    1b8e:	25 fd       	sbrc	r18, 5
    1b90:	10 c0       	rjmp	.+32     	; 0x1bb2 <Endpoint_WaitUntilReady+0x48>
    1b92:	20 91 e4 00 	lds	r18, 0x00E4
    1b96:	30 91 e5 00 	lds	r19, 0x00E5
		  return ENDPOINT_READYWAIT_EndpointStalled;

		uint16_t CurrentFrameNumber = USB_Device_GetFrameNumber();

		if (CurrentFrameNumber != PreviousFrameNumber)
    1b9a:	28 17       	cp	r18, r24
    1b9c:	39 07       	cpc	r19, r25
    1b9e:	51 f3       	breq	.-44     	; 0x1b74 <Endpoint_WaitUntilReady+0xa>
    1ba0:	41 50       	subi	r20, 0x01	; 1
    1ba2:	c9 01       	movw	r24, r18
		{
			PreviousFrameNumber = CurrentFrameNumber;

			if (!(TimeoutMSRem--))
    1ba4:	39 f7       	brne	.-50     	; 0x1b74 <Endpoint_WaitUntilReady+0xa>
			  return ENDPOINT_READYWAIT_Timeout;
    1ba6:	84 e0       	ldi	r24, 0x04	; 4
    1ba8:	08 95       	ret
		}

		uint8_t USB_DeviceState_LCL = USB_DeviceState;

		if (USB_DeviceState_LCL == DEVICE_STATE_Unattached)
		  return ENDPOINT_READYWAIT_DeviceDisconnected;
    1baa:	82 e0       	ldi	r24, 0x02	; 2
    1bac:	08 95       	ret
		else if (USB_DeviceState_LCL == DEVICE_STATE_Suspended)
		  return ENDPOINT_READYWAIT_BusSuspended;
    1bae:	83 e0       	ldi	r24, 0x03	; 3
    1bb0:	08 95       	ret
		else if (Endpoint_IsStalled())
		  return ENDPOINT_READYWAIT_EndpointStalled;
    1bb2:	81 e0       	ldi	r24, 0x01	; 1
    1bb4:	08 95       	ret
	for (;;)
	{
		if (Endpoint_GetEndpointDirection() == ENDPOINT_DIR_IN)
		{
			if (Endpoint_IsINReady())
			  return ENDPOINT_READYWAIT_NoError;
    1bb6:	80 e0       	ldi	r24, 0x00	; 0
    1bb8:	08 95       	ret
			 *  \return Boolean \c true if the current endpoint is ready for an IN packet, \c false otherwise.
			 */
			static inline bool Endpoint_IsINReady(void) ATTR_WARN_UNUSED_RESULT ATTR_ALWAYS_INLINE;
			static inline bool Endpoint_IsINReady(void)
			{
				return ((UEINTX & (1 << TXINI)) ? true : false);
    1bba:	20 91 e8 00 	lds	r18, 0x00E8

	for (;;)
	{
		if (Endpoint_GetEndpointDirection() == ENDPOINT_DIR_IN)
		{
			if (Endpoint_IsINReady())
    1bbe:	20 ff       	sbrs	r18, 0
    1bc0:	de cf       	rjmp	.-68     	; 0x1b7e <Endpoint_WaitUntilReady+0x14>
    1bc2:	f9 cf       	rjmp	.-14     	; 0x1bb6 <Endpoint_WaitUntilReady+0x4c>
			 *  \return Boolean \c true if current endpoint is has received an OUT packet, \c false otherwise.
			 */
			static inline bool Endpoint_IsOUTReceived(void) ATTR_WARN_UNUSED_RESULT ATTR_ALWAYS_INLINE;
			static inline bool Endpoint_IsOUTReceived(void)
			{
				return ((UEINTX & (1 << RXOUTI)) ? true : false);
    1bc4:	20 91 e8 00 	lds	r18, 0x00E8
			  return ENDPOINT_READYWAIT_NoError;
		}
		else
		{
			if (Endpoint_IsOUTReceived())
    1bc8:	22 ff       	sbrs	r18, 2
    1bca:	d9 cf       	rjmp	.-78     	; 0x1b7e <Endpoint_WaitUntilReady+0x14>
    1bcc:	f4 cf       	rjmp	.-24     	; 0x1bb6 <Endpoint_WaitUntilReady+0x4c>

00001bce <USB_ResetInterface>:
{
	#if defined(USB_CAN_BE_BOTH)
	bool UIDModeSelectEnabled = ((UHWCON & (1 << UIDE)) != 0);
	#endif

	USB_INT_DisableAllInterrupts();
    1bce:	41 d0       	rcall	.+130    	; 0x1c52 <USB_INT_DisableAllInterrupts>
    1bd0:	43 d0       	rcall	.+134    	; 0x1c58 <USB_INT_ClearAllInterrupts>
	USB_INT_ClearAllInterrupts();
    1bd2:	80 91 d8 00 	lds	r24, 0x00D8
			}

			static inline void USB_Controller_Reset(void) ATTR_ALWAYS_INLINE;
			static inline void USB_Controller_Reset(void)
			{
				USBCON &= ~(1 << USBE);
    1bd6:	8f 77       	andi	r24, 0x7F	; 127
    1bd8:	80 93 d8 00 	sts	0x00D8, r24
    1bdc:	80 91 d8 00 	lds	r24, 0x00D8
				USBCON |=  (1 << USBE);
    1be0:	80 68       	ori	r24, 0x80	; 128
    1be2:	80 93 d8 00 	sts	0x00D8, r24
    1be6:	80 91 d8 00 	lds	r24, 0x00D8
			}

			static inline void USB_CLK_Unfreeze(void) ATTR_ALWAYS_INLINE;
			static inline void USB_CLK_Unfreeze(void)
			{
				USBCON &= ~(1 << FRZCLK);
    1bea:	8f 7d       	andi	r24, 0xDF	; 223
    1bec:	80 93 d8 00 	sts	0x00D8, r24
    1bf0:	84 e0       	ldi	r24, 0x04	; 4
    1bf2:	89 bd       	out	0x29, r24	; 41

		/* Inline Functions: */
			static inline void USB_PLL_On(void) ATTR_ALWAYS_INLINE;
			static inline void USB_PLL_On(void)
			{
				PLLCSR = USB_PLL_PSC;
    1bf4:	86 e0       	ldi	r24, 0x06	; 6
    1bf6:	89 bd       	out	0x29, r24	; 41
				PLLCSR = (USB_PLL_PSC | (1 << PLLE));
    1bf8:	09 b4       	in	r0, 0x29	; 41
    1bfa:	00 fe       	sbrs	r0, 0

		if (!(USB_Options & USB_OPT_MANUAL_PLL))
		{
			#if defined(USB_SERIES_2_AVR)
			USB_PLL_On();
			while (!(USB_PLL_IsReady()));
    1bfc:	fd cf       	rjmp	.-6      	; 0x1bf8 <USB_ResetInterface+0x2a>
    1bfe:	10 92 f3 01 	sts	0x01F3, r1
}

#if defined(USB_CAN_BE_DEVICE)
static void USB_Init_Device(void)
{
	USB_DeviceState                 = DEVICE_STATE_Unattached;
    1c02:	10 92 ef 01 	sts	0x01EF, r1
	USB_Device_ConfigurationNumber  = 0;
    1c06:	10 92 f1 01 	sts	0x01F1, r1

	#if !defined(NO_DEVICE_REMOTE_WAKEUP)
	USB_Device_RemoteWakeupEnabled  = false;
    1c0a:	10 92 f0 01 	sts	0x01F0, r1
	#endif

	#if !defined(NO_DEVICE_SELF_POWER)
	USB_Device_CurrentlySelfPowered = false;
    1c0e:	42 e0       	ldi	r20, 0x02	; 2
    1c10:	60 e0       	ldi	r22, 0x00	; 0
				uint8_t Number = (Address & ENDPOINT_EPNUM_MASK);

				if (Number >= ENDPOINT_TOTAL_ENDPOINTS)
				  return false;

				return Endpoint_ConfigureEndpoint_Prv(Number,
    1c12:	80 e0       	ldi	r24, 0x00	; 0
    1c14:	14 df       	rcall	.-472    	; 0x1a3e <Endpoint_ConfigureEndpoint_Prv>
    1c16:	80 91 e1 00 	lds	r24, 0x00E1
    1c1a:	8e 7f       	andi	r24, 0xFE	; 254
					#if defined(USB_CAN_BE_DEVICE)
					case USB_INT_WAKEUPI:
						UDINT  &= ~(1 << WAKEUPI);
						break;
					case USB_INT_SUSPI:
						UDINT  &= ~(1 << SUSPI);
    1c1c:	80 93 e1 00 	sts	0x00E1, r24
    1c20:	80 91 e2 00 	lds	r24, 0x00E2
    1c24:	81 60       	ori	r24, 0x01	; 1
					#if defined(USB_CAN_BE_DEVICE)
					case USB_INT_WAKEUPI:
						UDIEN  |= (1 << WAKEUPE);
						break;
					case USB_INT_SUSPI:
						UDIEN  |= (1 << SUSPE);
    1c26:	80 93 e2 00 	sts	0x00E2, r24
    1c2a:	80 91 e2 00 	lds	r24, 0x00E2
    1c2e:	88 60       	ori	r24, 0x08	; 8
						break;
					case USB_INT_EORSTI:
						UDIEN  |= (1 << EORSTE);
    1c30:	80 93 e2 00 	sts	0x00E2, r24
    1c34:	80 91 e0 00 	lds	r24, 0x00E0
    1c38:	8e 7f       	andi	r24, 0xFE	; 254
			 *  register and despite the datasheet making no mention of its requirement in host mode.
			 */
			static inline void USB_Attach(void) ATTR_ALWAYS_INLINE;
			static inline void USB_Attach(void)
			{
				UDCON  &= ~(1 << DETACH);
    1c3a:	80 93 e0 00 	sts	0x00E0, r24
    1c3e:	08 95       	ret

00001c40 <USB_Init>:

               #if !defined(USE_STATIC_OPTIONS)
               const uint8_t Options
               #endif
               )
{
    1c40:	e3 e6       	ldi	r30, 0x63	; 99
    1c42:	f0 e0       	ldi	r31, 0x00	; 0
    1c44:	80 81       	ld	r24, Z
    1c46:	8e 7f       	andi	r24, 0xFE	; 254
    1c48:	80 83       	st	Z, r24
		UHWCON &= ~(1 << UIDE);
		USB_CurrentMode = Mode;
	}
	#endif

	USB_IsInitialized = true;
    1c4a:	81 e0       	ldi	r24, 0x01	; 1
    1c4c:	80 93 f2 01 	sts	0x01F2, r24

	USB_ResetInterface();
    1c50:	be cf       	rjmp	.-132    	; 0x1bce <USB_ResetInterface>

00001c52 <USB_INT_DisableAllInterrupts>:
    1c52:	10 92 e2 00 	sts	0x00E2, r1
	#if defined(USB_CAN_BE_HOST)
	UHIEN   = 0;
	#endif

	#if defined(USB_CAN_BE_DEVICE)
	UDIEN   = 0;
    1c56:	08 95       	ret

00001c58 <USB_INT_ClearAllInterrupts>:
	#if defined(USB_CAN_BE_HOST)
	UHINT  = 0;
	#endif

	#if defined(USB_CAN_BE_DEVICE)
	UDINT  = 0;
    1c58:	10 92 e1 00 	sts	0x00E1, r1
    1c5c:	08 95       	ret

00001c5e <__vector_11>:
	#endif
}

ISR(USB_GEN_vect, ISR_BLOCK)
{
    1c5e:	1f 92       	push	r1
    1c60:	0f 92       	push	r0
    1c62:	0f b6       	in	r0, 0x3f	; 63
    1c64:	0f 92       	push	r0
    1c66:	11 24       	eor	r1, r1
    1c68:	2f 93       	push	r18
    1c6a:	3f 93       	push	r19
    1c6c:	4f 93       	push	r20
    1c6e:	5f 93       	push	r21
    1c70:	6f 93       	push	r22
    1c72:	7f 93       	push	r23
    1c74:	8f 93       	push	r24
    1c76:	9f 93       	push	r25
    1c78:	af 93       	push	r26
    1c7a:	bf 93       	push	r27
    1c7c:	ef 93       	push	r30
    1c7e:	ff 93       	push	r31
					case USB_INT_SUSPI:
						return (UDINT  & (1 << SUSPI));
					case USB_INT_EORSTI:
						return (UDINT  & (1 << EORSTI));
					case USB_INT_SOFI:
						return (UDINT  & (1 << SOFI));
    1c80:	80 91 e1 00 	lds	r24, 0x00E1
	#if defined(USB_CAN_BE_DEVICE)
	#if !defined(NO_SOF_EVENTS)
	if (USB_INT_HasOccurred(USB_INT_SOFI) && USB_INT_IsEnabled(USB_INT_SOFI))
    1c84:	82 ff       	sbrs	r24, 2
    1c86:	0b c0       	rjmp	.+22     	; 0x1c9e <__vector_11+0x40>
					case USB_INT_SUSPI:
						return (UDIEN  & (1 << SUSPE));
					case USB_INT_EORSTI:
						return (UDIEN  & (1 << EORSTE));
					case USB_INT_SOFI:
						return (UDIEN  & (1 << SOFE));
    1c88:	80 91 e2 00 	lds	r24, 0x00E2
    1c8c:	82 ff       	sbrs	r24, 2
    1c8e:	07 c0       	rjmp	.+14     	; 0x1c9e <__vector_11+0x40>
						break;
					case USB_INT_EORSTI:
						UDINT  &= ~(1 << EORSTI);
						break;
					case USB_INT_SOFI:
						UDINT  &= ~(1 << SOFI);
    1c90:	80 91 e1 00 	lds	r24, 0x00E1
    1c94:	8b 7f       	andi	r24, 0xFB	; 251
    1c96:	80 93 e1 00 	sts	0x00E1, r24
	{
		USB_INT_Clear(USB_INT_SOFI);

		EVENT_USB_Device_StartOfFrame();
    1c9a:	0e 94 c6 03 	call	0x78c	; 0x78c <EVENT_USB_Device_StartOfFrame>
					#endif
					#if defined(USB_CAN_BE_DEVICE)
					case USB_INT_WAKEUPI:
						return (UDINT  & (1 << WAKEUPI));
					case USB_INT_SUSPI:
						return (UDINT  & (1 << SUSPI));
    1c9e:	80 91 e1 00 	lds	r24, 0x00E1
			EVENT_USB_Device_Disconnect();
		}
	}
	#endif

	if (USB_INT_HasOccurred(USB_INT_SUSPI) && USB_INT_IsEnabled(USB_INT_SUSPI))
    1ca2:	80 ff       	sbrs	r24, 0
    1ca4:	18 c0       	rjmp	.+48     	; 0x1cd6 <__vector_11+0x78>
					#endif
					#if defined(USB_CAN_BE_DEVICE)
					case USB_INT_WAKEUPI:
						return (UDIEN  & (1 << WAKEUPE));
					case USB_INT_SUSPI:
						return (UDIEN  & (1 << SUSPE));
    1ca6:	80 91 e2 00 	lds	r24, 0x00E2
    1caa:	80 ff       	sbrs	r24, 0
    1cac:	14 c0       	rjmp	.+40     	; 0x1cd6 <__vector_11+0x78>
					#if defined(USB_CAN_BE_DEVICE)
					case USB_INT_WAKEUPI:
						UDIEN  &= ~(1 << WAKEUPE);
						break;
					case USB_INT_SUSPI:
						UDIEN  &= ~(1 << SUSPE);
    1cae:	80 91 e2 00 	lds	r24, 0x00E2
    1cb2:	8e 7f       	andi	r24, 0xFE	; 254
    1cb4:	80 93 e2 00 	sts	0x00E2, r24
						USBCON |= (1 << IDTE);
						break;
					#endif
					#if defined(USB_CAN_BE_DEVICE)
					case USB_INT_WAKEUPI:
						UDIEN  |= (1 << WAKEUPE);
    1cb8:	80 91 e2 00 	lds	r24, 0x00E2
    1cbc:	80 61       	ori	r24, 0x10	; 16
    1cbe:	80 93 e2 00 	sts	0x00E2, r24
			#endif

			static inline void USB_CLK_Freeze(void) ATTR_ALWAYS_INLINE;
			static inline void USB_CLK_Freeze(void)
			{
				USBCON |=  (1 << FRZCLK);
    1cc2:	80 91 d8 00 	lds	r24, 0x00D8
    1cc6:	80 62       	ori	r24, 0x20	; 32
    1cc8:	80 93 d8 00 	sts	0x00D8, r24
			}

			static inline void USB_PLL_Off(void) ATTR_ALWAYS_INLINE;
			static inline void USB_PLL_Off(void)
			{
				PLLCSR = 0;
    1ccc:	19 bc       	out	0x29, r1	; 41

		if (!(USB_Options & USB_OPT_MANUAL_PLL))
		  USB_PLL_Off();

		#if defined(USB_SERIES_2_AVR) && !defined(NO_LIMITED_CONTROLLER_CONNECT)
		USB_DeviceState = DEVICE_STATE_Unattached;
    1cce:	10 92 f3 01 	sts	0x01F3, r1
		EVENT_USB_Device_Disconnect();
    1cd2:	0e 94 6a 03 	call	0x6d4	; 0x6d4 <EVENT_USB_Device_Disconnect>
					case USB_INT_IDTI:
						return (USBINT & (1 << IDTI));
					#endif
					#if defined(USB_CAN_BE_DEVICE)
					case USB_INT_WAKEUPI:
						return (UDINT  & (1 << WAKEUPI));
    1cd6:	80 91 e1 00 	lds	r24, 0x00E1
		USB_DeviceState = DEVICE_STATE_Suspended;
		EVENT_USB_Device_Suspend();
		#endif
	}

	if (USB_INT_HasOccurred(USB_INT_WAKEUPI) && USB_INT_IsEnabled(USB_INT_WAKEUPI))
    1cda:	84 ff       	sbrs	r24, 4
    1cdc:	30 c0       	rjmp	.+96     	; 0x1d3e <__vector_11+0xe0>
					case USB_INT_IDTI:
						return (USBCON & (1 << IDTE));
					#endif
					#if defined(USB_CAN_BE_DEVICE)
					case USB_INT_WAKEUPI:
						return (UDIEN  & (1 << WAKEUPE));
    1cde:	80 91 e2 00 	lds	r24, 0x00E2
    1ce2:	84 ff       	sbrs	r24, 4
    1ce4:	2c c0       	rjmp	.+88     	; 0x1d3e <__vector_11+0xe0>

		/* Inline Functions: */
			static inline void USB_PLL_On(void) ATTR_ALWAYS_INLINE;
			static inline void USB_PLL_On(void)
			{
				PLLCSR = USB_PLL_PSC;
    1ce6:	84 e0       	ldi	r24, 0x04	; 4
    1ce8:	89 bd       	out	0x29, r24	; 41
				PLLCSR = (USB_PLL_PSC | (1 << PLLE));
    1cea:	86 e0       	ldi	r24, 0x06	; 6
    1cec:	89 bd       	out	0x29, r24	; 41
	{
		if (!(USB_Options & USB_OPT_MANUAL_PLL))
		{
			USB_PLL_On();
			while (!(USB_PLL_IsReady()));
    1cee:	09 b4       	in	r0, 0x29	; 41
    1cf0:	00 fe       	sbrs	r0, 0
    1cf2:	fd cf       	rjmp	.-6      	; 0x1cee <__vector_11+0x90>
			}

			static inline void USB_CLK_Unfreeze(void) ATTR_ALWAYS_INLINE;
			static inline void USB_CLK_Unfreeze(void)
			{
				USBCON &= ~(1 << FRZCLK);
    1cf4:	80 91 d8 00 	lds	r24, 0x00D8
    1cf8:	8f 7d       	andi	r24, 0xDF	; 223
    1cfa:	80 93 d8 00 	sts	0x00D8, r24
						USBINT &= ~(1 << IDTI);
						break;
					#endif
					#if defined(USB_CAN_BE_DEVICE)
					case USB_INT_WAKEUPI:
						UDINT  &= ~(1 << WAKEUPI);
    1cfe:	80 91 e1 00 	lds	r24, 0x00E1
    1d02:	8f 7e       	andi	r24, 0xEF	; 239
    1d04:	80 93 e1 00 	sts	0x00E1, r24
						USBCON &= ~(1 << IDTE);
						break;
					#endif
					#if defined(USB_CAN_BE_DEVICE)
					case USB_INT_WAKEUPI:
						UDIEN  &= ~(1 << WAKEUPE);
    1d08:	80 91 e2 00 	lds	r24, 0x00E2
    1d0c:	8f 7e       	andi	r24, 0xEF	; 239
    1d0e:	80 93 e2 00 	sts	0x00E2, r24
					#if defined(USB_CAN_BE_DEVICE)
					case USB_INT_WAKEUPI:
						UDIEN  |= (1 << WAKEUPE);
						break;
					case USB_INT_SUSPI:
						UDIEN  |= (1 << SUSPE);
    1d12:	80 91 e2 00 	lds	r24, 0x00E2
    1d16:	81 60       	ori	r24, 0x01	; 1
    1d18:	80 93 e2 00 	sts	0x00E2, r24
		USB_INT_Clear(USB_INT_WAKEUPI);

		USB_INT_Disable(USB_INT_WAKEUPI);
		USB_INT_Enable(USB_INT_SUSPI);

		if (USB_Device_ConfigurationNumber)
    1d1c:	80 91 ef 01 	lds	r24, 0x01EF
    1d20:	88 23       	and	r24, r24
    1d22:	11 f0       	breq	.+4      	; 0x1d28 <__vector_11+0xca>
		  USB_DeviceState = DEVICE_STATE_Configured;
    1d24:	84 e0       	ldi	r24, 0x04	; 4
    1d26:	07 c0       	rjmp	.+14     	; 0x1d36 <__vector_11+0xd8>
			}

			static inline bool USB_Device_IsAddressSet(void) ATTR_ALWAYS_INLINE ATTR_WARN_UNUSED_RESULT;
			static inline bool USB_Device_IsAddressSet(void)
			{
				return (UDADDR & (1 << ADDEN));
    1d28:	80 91 e3 00 	lds	r24, 0x00E3
		else
		  USB_DeviceState = (USB_Device_IsAddressSet()) ? DEVICE_STATE_Addressed : DEVICE_STATE_Powered;
    1d2c:	87 ff       	sbrs	r24, 7
    1d2e:	02 c0       	rjmp	.+4      	; 0x1d34 <__vector_11+0xd6>
    1d30:	83 e0       	ldi	r24, 0x03	; 3
    1d32:	01 c0       	rjmp	.+2      	; 0x1d36 <__vector_11+0xd8>
    1d34:	81 e0       	ldi	r24, 0x01	; 1
    1d36:	80 93 f3 01 	sts	0x01F3, r24

		#if defined(USB_SERIES_2_AVR) && !defined(NO_LIMITED_CONTROLLER_CONNECT)
		EVENT_USB_Device_Connect();
    1d3a:	0e 94 69 03 	call	0x6d2	; 0x6d2 <EVENT_USB_Device_Connect>
					case USB_INT_WAKEUPI:
						return (UDINT  & (1 << WAKEUPI));
					case USB_INT_SUSPI:
						return (UDINT  & (1 << SUSPI));
					case USB_INT_EORSTI:
						return (UDINT  & (1 << EORSTI));
    1d3e:	80 91 e1 00 	lds	r24, 0x00E1
		#else
		EVENT_USB_Device_WakeUp();
		#endif
	}

	if (USB_INT_HasOccurred(USB_INT_EORSTI) && USB_INT_IsEnabled(USB_INT_EORSTI))
    1d42:	83 ff       	sbrs	r24, 3
    1d44:	27 c0       	rjmp	.+78     	; 0x1d94 <__vector_11+0x136>
					case USB_INT_WAKEUPI:
						return (UDIEN  & (1 << WAKEUPE));
					case USB_INT_SUSPI:
						return (UDIEN  & (1 << SUSPE));
					case USB_INT_EORSTI:
						return (UDIEN  & (1 << EORSTE));
    1d46:	80 91 e2 00 	lds	r24, 0x00E2
    1d4a:	83 ff       	sbrs	r24, 3
    1d4c:	23 c0       	rjmp	.+70     	; 0x1d94 <__vector_11+0x136>
						break;
					case USB_INT_SUSPI:
						UDINT  &= ~(1 << SUSPI);
						break;
					case USB_INT_EORSTI:
						UDINT  &= ~(1 << EORSTI);
    1d4e:	80 91 e1 00 	lds	r24, 0x00E1
    1d52:	87 7f       	andi	r24, 0xF7	; 247
    1d54:	80 93 e1 00 	sts	0x00E1, r24
	{
		USB_INT_Clear(USB_INT_EORSTI);

		USB_DeviceState                = DEVICE_STATE_Default;
    1d58:	82 e0       	ldi	r24, 0x02	; 2
    1d5a:	80 93 f3 01 	sts	0x01F3, r24
		USB_Device_ConfigurationNumber = 0;
    1d5e:	10 92 ef 01 	sts	0x01EF, r1
					#if defined(USB_CAN_BE_DEVICE)
					case USB_INT_WAKEUPI:
						UDINT  &= ~(1 << WAKEUPI);
						break;
					case USB_INT_SUSPI:
						UDINT  &= ~(1 << SUSPI);
    1d62:	80 91 e1 00 	lds	r24, 0x00E1
    1d66:	8e 7f       	andi	r24, 0xFE	; 254
    1d68:	80 93 e1 00 	sts	0x00E1, r24
					#if defined(USB_CAN_BE_DEVICE)
					case USB_INT_WAKEUPI:
						UDIEN  &= ~(1 << WAKEUPE);
						break;
					case USB_INT_SUSPI:
						UDIEN  &= ~(1 << SUSPE);
    1d6c:	80 91 e2 00 	lds	r24, 0x00E2
    1d70:	8e 7f       	andi	r24, 0xFE	; 254
    1d72:	80 93 e2 00 	sts	0x00E2, r24
						USBCON |= (1 << IDTE);
						break;
					#endif
					#if defined(USB_CAN_BE_DEVICE)
					case USB_INT_WAKEUPI:
						UDIEN  |= (1 << WAKEUPE);
    1d76:	80 91 e2 00 	lds	r24, 0x00E2
    1d7a:	80 61       	ori	r24, 0x10	; 16
    1d7c:	80 93 e2 00 	sts	0x00E2, r24
				uint8_t Number = (Address & ENDPOINT_EPNUM_MASK);

				if (Number >= ENDPOINT_TOTAL_ENDPOINTS)
				  return false;

				return Endpoint_ConfigureEndpoint_Prv(Number,
    1d80:	42 e0       	ldi	r20, 0x02	; 2
    1d82:	60 e0       	ldi	r22, 0x00	; 0
    1d84:	80 e0       	ldi	r24, 0x00	; 0
    1d86:	5b de       	rcall	.-842    	; 0x1a3e <Endpoint_ConfigureEndpoint_Prv>
    1d88:	80 91 f0 00 	lds	r24, 0x00F0
						break;
					case USB_INT_SOFI:
						UDIEN  |= (1 << SOFE);
						break;
					case USB_INT_RXSTPI:
						UEIENX |= (1 << RXSTPE);
    1d8c:	88 60       	ori	r24, 0x08	; 8
    1d8e:	80 93 f0 00 	sts	0x00F0, r24
    1d92:	b8 d1       	rcall	.+880    	; 0x2104 <USB_Event_Stub>

		#if defined(INTERRUPT_CONTROL_ENDPOINT)
		USB_INT_Enable(USB_INT_RXSTPI);
		#endif

		EVENT_USB_Device_Reset();
    1d94:	ff 91       	pop	r31
    1d96:	ef 91       	pop	r30
		USB_ResetInterface();

		EVENT_USB_UIDChange();
	}
	#endif
}
    1d98:	bf 91       	pop	r27
    1d9a:	af 91       	pop	r26
    1d9c:	9f 91       	pop	r25
    1d9e:	8f 91       	pop	r24
    1da0:	7f 91       	pop	r23
    1da2:	6f 91       	pop	r22
    1da4:	5f 91       	pop	r21
    1da6:	4f 91       	pop	r20
    1da8:	3f 91       	pop	r19
    1daa:	2f 91       	pop	r18
    1dac:	0f 90       	pop	r0
    1dae:	0f be       	out	0x3f, r0	; 63
    1db0:	0f 90       	pop	r0
    1db2:	1f 90       	pop	r1
    1db4:	18 95       	reti

00001db6 <__vector_12>:

#if defined(INTERRUPT_CONTROL_ENDPOINT) && defined(USB_CAN_BE_DEVICE)
ISR(USB_COM_vect, ISR_BLOCK)
{
    1db6:	1f 92       	push	r1
    1db8:	0f 92       	push	r0
    1dba:	0f b6       	in	r0, 0x3f	; 63
    1dbc:	0f 92       	push	r0
    1dbe:	11 24       	eor	r1, r1
    1dc0:	2f 93       	push	r18
    1dc2:	3f 93       	push	r19
    1dc4:	4f 93       	push	r20
    1dc6:	5f 93       	push	r21
    1dc8:	6f 93       	push	r22
    1dca:	7f 93       	push	r23
    1dcc:	8f 93       	push	r24
    1dce:	9f 93       	push	r25
    1dd0:	af 93       	push	r26
    1dd2:	bf 93       	push	r27
    1dd4:	cf 93       	push	r28
    1dd6:	ef 93       	push	r30
    1dd8:	ff 93       	push	r31
			 */
			static inline uint8_t Endpoint_GetCurrentEndpoint(void) ATTR_WARN_UNUSED_RESULT ATTR_ALWAYS_INLINE;
			static inline uint8_t Endpoint_GetCurrentEndpoint(void)
			{
				#if !defined(CONTROL_ONLY_DEVICE)
					return ((UENUM & ENDPOINT_EPNUM_MASK) | Endpoint_GetEndpointDirection());
    1dda:	80 91 e9 00 	lds	r24, 0x00E9
    1dde:	8f 70       	andi	r24, 0x0F	; 15
			 *  \return The currently selected endpoint's direction, as a \c ENDPOINT_DIR_* mask.
			 */
			static inline uint8_t Endpoint_GetEndpointDirection(void) ATTR_WARN_UNUSED_RESULT ATTR_ALWAYS_INLINE;
			static inline uint8_t Endpoint_GetEndpointDirection(void)
			{
				return (UECFG0X & (1 << EPDIR)) ? ENDPOINT_DIR_IN : ENDPOINT_DIR_OUT;
    1de0:	90 91 ec 00 	lds	r25, 0x00EC
    1de4:	90 ff       	sbrs	r25, 0
    1de6:	02 c0       	rjmp	.+4      	; 0x1dec <__vector_12+0x36>
    1de8:	90 e8       	ldi	r25, 0x80	; 128
    1dea:	01 c0       	rjmp	.+2      	; 0x1dee <__vector_12+0x38>
    1dec:	90 e0       	ldi	r25, 0x00	; 0
			 */
			static inline uint8_t Endpoint_GetCurrentEndpoint(void) ATTR_WARN_UNUSED_RESULT ATTR_ALWAYS_INLINE;
			static inline uint8_t Endpoint_GetCurrentEndpoint(void)
			{
				#if !defined(CONTROL_ONLY_DEVICE)
					return ((UENUM & ENDPOINT_EPNUM_MASK) | Endpoint_GetEndpointDirection());
    1dee:	c9 2f       	mov	r28, r25
    1df0:	c8 2b       	or	r28, r24
			 */
			static inline void Endpoint_SelectEndpoint(const uint8_t Address) ATTR_ALWAYS_INLINE;
			static inline void Endpoint_SelectEndpoint(const uint8_t Address)
			{
				#if !defined(CONTROL_ONLY_DEVICE)
					UENUM = (Address & ENDPOINT_EPNUM_MASK);
    1df2:	10 92 e9 00 	sts	0x00E9, r1
						break;
					case USB_INT_SOFI:
						UDIEN  &= ~(1 << SOFE);
						break;
					case USB_INT_RXSTPI:
						UEIENX &= ~(1 << RXSTPE);
    1df6:	80 91 f0 00 	lds	r24, 0x00F0
    1dfa:	87 7f       	andi	r24, 0xF7	; 247
    1dfc:	80 93 f0 00 	sts	0x00F0, r24
			static inline void GlobalInterruptEnable(void)
			{
				GCC_MEMORY_BARRIER();

				#if (ARCH == ARCH_AVR8)
				sei();
    1e00:	78 94       	sei
	Endpoint_SelectEndpoint(ENDPOINT_CONTROLEP);
	USB_INT_Disable(USB_INT_RXSTPI);

	GlobalInterruptEnable();

	USB_Device_ProcessControlRequest();
    1e02:	1c d0       	rcall	.+56     	; 0x1e3c <USB_Device_ProcessControlRequest>
    1e04:	10 92 e9 00 	sts	0x00E9, r1
    1e08:	80 91 f0 00 	lds	r24, 0x00F0
						break;
					case USB_INT_SOFI:
						UDIEN  |= (1 << SOFE);
						break;
					case USB_INT_RXSTPI:
						UEIENX |= (1 << RXSTPE);
    1e0c:	88 60       	ori	r24, 0x08	; 8
    1e0e:	80 93 f0 00 	sts	0x00F0, r24
    1e12:	cf 70       	andi	r28, 0x0F	; 15
    1e14:	c0 93 e9 00 	sts	0x00E9, r28
    1e18:	ff 91       	pop	r31

	Endpoint_SelectEndpoint(ENDPOINT_CONTROLEP);
	USB_INT_Enable(USB_INT_RXSTPI);
	Endpoint_SelectEndpoint(PrevSelectedEndpoint);
}
    1e1a:	ef 91       	pop	r30
    1e1c:	cf 91       	pop	r28
    1e1e:	bf 91       	pop	r27
    1e20:	af 91       	pop	r26
    1e22:	9f 91       	pop	r25
    1e24:	8f 91       	pop	r24
    1e26:	7f 91       	pop	r23
    1e28:	6f 91       	pop	r22
    1e2a:	5f 91       	pop	r21
    1e2c:	4f 91       	pop	r20
    1e2e:	3f 91       	pop	r19
    1e30:	2f 91       	pop	r18
    1e32:	0f 90       	pop	r0
    1e34:	0f be       	out	0x3f, r0	; 63
    1e36:	0f 90       	pop	r0
    1e38:	1f 90       	pop	r1
    1e3a:	18 95       	reti

00001e3c <USB_Device_ProcessControlRequest>:
    1e3c:	1f 93       	push	r17
#if !defined(NO_DEVICE_REMOTE_WAKEUP)
bool    USB_Device_RemoteWakeupEnabled;
#endif

void USB_Device_ProcessControlRequest(void)
{
    1e3e:	cf 93       	push	r28
    1e40:	df 93       	push	r29
    1e42:	cd b7       	in	r28, 0x3d	; 61
    1e44:	de b7       	in	r29, 0x3e	; 62
    1e46:	ac 97       	sbiw	r28, 0x2c	; 44
    1e48:	0f b6       	in	r0, 0x3f	; 63
    1e4a:	f8 94       	cli
    1e4c:	de bf       	out	0x3e, r29	; 62
    1e4e:	0f be       	out	0x3f, r0	; 63
    1e50:	cd bf       	out	0x3d, r28	; 61
	USB_ControlRequest.bRequest      = Endpoint_Read_8();
	USB_ControlRequest.wValue        = Endpoint_Read_16_LE();
	USB_ControlRequest.wIndex        = Endpoint_Read_16_LE();
	USB_ControlRequest.wLength       = Endpoint_Read_16_LE();
	#else
	uint8_t* RequestHeader = (uint8_t*)&USB_ControlRequest;
    1e52:	e4 ef       	ldi	r30, 0xF4	; 244
    1e54:	f1 e0       	ldi	r31, 0x01	; 1
			 *  \return Next byte in the currently selected endpoint's FIFO buffer.
			 */
			static inline uint8_t Endpoint_Read_8(void) ATTR_WARN_UNUSED_RESULT ATTR_ALWAYS_INLINE;
			static inline uint8_t Endpoint_Read_8(void)
			{
				return UEDATX;
    1e56:	80 91 f1 00 	lds	r24, 0x00F1

	for (uint8_t RequestHeaderByte = 0; RequestHeaderByte < sizeof(USB_Request_Header_t); RequestHeaderByte++)
	  *(RequestHeader++) = Endpoint_Read_8();
    1e5a:	81 93       	st	Z+, r24
	USB_ControlRequest.wIndex        = Endpoint_Read_16_LE();
	USB_ControlRequest.wLength       = Endpoint_Read_16_LE();
	#else
	uint8_t* RequestHeader = (uint8_t*)&USB_ControlRequest;

	for (uint8_t RequestHeaderByte = 0; RequestHeaderByte < sizeof(USB_Request_Header_t); RequestHeaderByte++)
    1e5c:	21 e0       	ldi	r18, 0x01	; 1
    1e5e:	ec 3f       	cpi	r30, 0xFC	; 252
    1e60:	f2 07       	cpc	r31, r18
    1e62:	c9 f7       	brne	.-14     	; 0x1e56 <USB_Device_ProcessControlRequest+0x1a>
	  *(RequestHeader++) = Endpoint_Read_8();
	#endif

	EVENT_USB_Device_ControlRequest();
    1e64:	0e 94 be 03 	call	0x77c	; 0x77c <EVENT_USB_Device_ControlRequest>
			 *  \return Boolean \c true if the selected endpoint has received a SETUP packet, \c false otherwise.
			 */
			static inline bool Endpoint_IsSETUPReceived(void) ATTR_WARN_UNUSED_RESULT ATTR_ALWAYS_INLINE;
			static inline bool Endpoint_IsSETUPReceived(void)
			{
				return ((UEINTX & (1 << RXSTPI)) ? true : false);
    1e68:	80 91 e8 00 	lds	r24, 0x00E8

	if (Endpoint_IsSETUPReceived())
    1e6c:	83 ff       	sbrs	r24, 3
    1e6e:	32 c1       	rjmp	.+612    	; 0x20d4 <USB_Device_ProcessControlRequest+0x298>
	{
		uint8_t bmRequestType = USB_ControlRequest.bmRequestType;
    1e70:	80 91 f4 01 	lds	r24, 0x01F4

		switch (USB_ControlRequest.bRequest)
    1e74:	90 91 f5 01 	lds	r25, 0x01F5
    1e78:	95 30       	cpi	r25, 0x05	; 5
    1e7a:	09 f4       	brne	.+2      	; 0x1e7e <USB_Device_ProcessControlRequest+0x42>
    1e7c:	87 c0       	rjmp	.+270    	; 0x1f8c <USB_Device_ProcessControlRequest+0x150>
    1e7e:	38 f4       	brcc	.+14     	; 0x1e8e <USB_Device_ProcessControlRequest+0x52>
    1e80:	91 30       	cpi	r25, 0x01	; 1
    1e82:	b1 f1       	breq	.+108    	; 0x1ef0 <USB_Device_ProcessControlRequest+0xb4>
    1e84:	70 f0       	brcs	.+28     	; 0x1ea2 <USB_Device_ProcessControlRequest+0x66>
    1e86:	93 30       	cpi	r25, 0x03	; 3
    1e88:	09 f0       	breq	.+2      	; 0x1e8c <USB_Device_ProcessControlRequest+0x50>
    1e8a:	24 c1       	rjmp	.+584    	; 0x20d4 <USB_Device_ProcessControlRequest+0x298>
    1e8c:	31 c0       	rjmp	.+98     	; 0x1ef0 <USB_Device_ProcessControlRequest+0xb4>
    1e8e:	98 30       	cpi	r25, 0x08	; 8
    1e90:	09 f4       	brne	.+2      	; 0x1e94 <USB_Device_ProcessControlRequest+0x58>
    1e92:	f4 c0       	rjmp	.+488    	; 0x207c <USB_Device_ProcessControlRequest+0x240>
    1e94:	99 30       	cpi	r25, 0x09	; 9
    1e96:	09 f4       	brne	.+2      	; 0x1e9a <USB_Device_ProcessControlRequest+0x5e>
    1e98:	00 c1       	rjmp	.+512    	; 0x209a <USB_Device_ProcessControlRequest+0x25e>
    1e9a:	96 30       	cpi	r25, 0x06	; 6
    1e9c:	09 f0       	breq	.+2      	; 0x1ea0 <USB_Device_ProcessControlRequest+0x64>
    1e9e:	1a c1       	rjmp	.+564    	; 0x20d4 <USB_Device_ProcessControlRequest+0x298>
    1ea0:	9b c0       	rjmp	.+310    	; 0x1fd8 <USB_Device_ProcessControlRequest+0x19c>
		{
			case REQ_GetStatus:
				if ((bmRequestType == (REQDIR_DEVICETOHOST | REQTYPE_STANDARD | REQREC_DEVICE)) ||
    1ea2:	80 38       	cpi	r24, 0x80	; 128
    1ea4:	21 f0       	breq	.+8      	; 0x1eae <USB_Device_ProcessControlRequest+0x72>
    1ea6:	82 38       	cpi	r24, 0x82	; 130
    1ea8:	09 f0       	breq	.+2      	; 0x1eac <USB_Device_ProcessControlRequest+0x70>
    1eaa:	14 c1       	rjmp	.+552    	; 0x20d4 <USB_Device_ProcessControlRequest+0x298>
    1eac:	08 c0       	rjmp	.+16     	; 0x1ebe <USB_Device_ProcessControlRequest+0x82>
	Endpoint_ClearOUT();
}

static void USB_Device_GetStatus(void)
{
	uint8_t CurrentStatus = 0;
    1eae:	80 91 f0 01 	lds	r24, 0x01F0
			if (USB_Device_CurrentlySelfPowered)
			  CurrentStatus |= FEATURE_SELFPOWERED_ENABLED;
			#endif

			#if !defined(NO_DEVICE_REMOTE_WAKEUP)
			if (USB_Device_RemoteWakeupEnabled)
    1eb2:	90 91 f1 01 	lds	r25, 0x01F1
    1eb6:	99 23       	and	r25, r25
    1eb8:	89 f0       	breq	.+34     	; 0x1edc <USB_Device_ProcessControlRequest+0xa0>
			  CurrentStatus |= FEATURE_REMOTE_WAKEUP_ENABLED;
    1eba:	82 60       	ori	r24, 0x02	; 2
    1ebc:	0f c0       	rjmp	.+30     	; 0x1edc <USB_Device_ProcessControlRequest+0xa0>
			#endif
			break;
		case (REQDIR_DEVICETOHOST | REQTYPE_STANDARD | REQREC_ENDPOINT):
			#if !defined(CONTROL_ONLY_DEVICE)
			Endpoint_SelectEndpoint((uint8_t)USB_ControlRequest.wIndex & ENDPOINT_EPNUM_MASK);
    1ebe:	80 91 f8 01 	lds	r24, 0x01F8
    1ec2:	90 91 f9 01 	lds	r25, 0x01F9
    1ec6:	8f 70       	andi	r24, 0x0F	; 15
    1ec8:	99 27       	eor	r25, r25
			 */
			static inline void Endpoint_SelectEndpoint(const uint8_t Address) ATTR_ALWAYS_INLINE;
			static inline void Endpoint_SelectEndpoint(const uint8_t Address)
			{
				#if !defined(CONTROL_ONLY_DEVICE)
					UENUM = (Address & ENDPOINT_EPNUM_MASK);
    1eca:	80 93 e9 00 	sts	0x00E9, r24
			 *  \return Boolean \c true if the currently selected endpoint is stalled, \c false otherwise.
			 */
			static inline bool Endpoint_IsStalled(void) ATTR_WARN_UNUSED_RESULT ATTR_ALWAYS_INLINE;
			static inline bool Endpoint_IsStalled(void)
			{
				return ((UECONX & (1 << STALLRQ)) ? true : false);
    1ece:	80 91 eb 00 	lds	r24, 0x00EB
    1ed2:	85 fb       	bst	r24, 5
    1ed4:	88 27       	eor	r24, r24
    1ed6:	80 f9       	bld	r24, 0
			 */
			static inline void Endpoint_SelectEndpoint(const uint8_t Address) ATTR_ALWAYS_INLINE;
			static inline void Endpoint_SelectEndpoint(const uint8_t Address)
			{
				#if !defined(CONTROL_ONLY_DEVICE)
					UENUM = (Address & ENDPOINT_EPNUM_MASK);
    1ed8:	10 92 e9 00 	sts	0x00E9, r1
			 *  \note This is not applicable for non CONTROL type endpoints.
			 */
			static inline void Endpoint_ClearSETUP(void) ATTR_ALWAYS_INLINE;
			static inline void Endpoint_ClearSETUP(void)
			{
				UEINTX &= ~(1 << RXSTPI);
    1edc:	90 91 e8 00 	lds	r25, 0x00E8
    1ee0:	97 7f       	andi	r25, 0xF7	; 247
    1ee2:	90 93 e8 00 	sts	0x00E8, r25
			 *  \param[in] Data  Data to write to the currently selected endpoint's FIFO buffer.
			 */
			static inline void Endpoint_Write_16_LE(const uint16_t Data) ATTR_ALWAYS_INLINE;
			static inline void Endpoint_Write_16_LE(const uint16_t Data)
			{
				UEDATX = (Data & 0xFF);
    1ee6:	80 93 f1 00 	sts	0x00F1, r24
				UEDATX = (Data >> 8);
    1eea:	10 92 f1 00 	sts	0x00F1, r1
    1eee:	d1 c0       	rjmp	.+418    	; 0x2092 <USB_Device_ProcessControlRequest+0x256>
				}

				break;
			case REQ_ClearFeature:
			case REQ_SetFeature:
				if ((bmRequestType == (REQDIR_HOSTTODEVICE | REQTYPE_STANDARD | REQREC_DEVICE)) ||
    1ef0:	88 23       	and	r24, r24
    1ef2:	19 f0       	breq	.+6      	; 0x1efa <USB_Device_ProcessControlRequest+0xbe>
    1ef4:	82 30       	cpi	r24, 0x02	; 2
    1ef6:	09 f0       	breq	.+2      	; 0x1efa <USB_Device_ProcessControlRequest+0xbe>
    1ef8:	ed c0       	rjmp	.+474    	; 0x20d4 <USB_Device_ProcessControlRequest+0x298>
	Endpoint_ClearStatusStage();
}

static void USB_Device_ClearSetFeature(void)
{
	switch (USB_ControlRequest.bmRequestType & CONTROL_REQTYPE_RECIPIENT)
    1efa:	8f 71       	andi	r24, 0x1F	; 31
    1efc:	21 f0       	breq	.+8      	; 0x1f06 <USB_Device_ProcessControlRequest+0xca>
    1efe:	82 30       	cpi	r24, 0x02	; 2
    1f00:	09 f0       	breq	.+2      	; 0x1f04 <USB_Device_ProcessControlRequest+0xc8>
    1f02:	e8 c0       	rjmp	.+464    	; 0x20d4 <USB_Device_ProcessControlRequest+0x298>
    1f04:	0b c0       	rjmp	.+22     	; 0x1f1c <USB_Device_ProcessControlRequest+0xe0>
	{
		#if !defined(NO_DEVICE_REMOTE_WAKEUP)
		case REQREC_DEVICE:
			if ((uint8_t)USB_ControlRequest.wValue == FEATURE_SEL_DeviceRemoteWakeup)
    1f06:	80 91 f6 01 	lds	r24, 0x01F6
    1f0a:	81 30       	cpi	r24, 0x01	; 1
    1f0c:	09 f0       	breq	.+2      	; 0x1f10 <USB_Device_ProcessControlRequest+0xd4>
    1f0e:	e2 c0       	rjmp	.+452    	; 0x20d4 <USB_Device_ProcessControlRequest+0x298>
			  USB_Device_RemoteWakeupEnabled = (USB_ControlRequest.bRequest == REQ_SetFeature);
    1f10:	93 30       	cpi	r25, 0x03	; 3
    1f12:	09 f0       	breq	.+2      	; 0x1f16 <USB_Device_ProcessControlRequest+0xda>
    1f14:	80 e0       	ldi	r24, 0x00	; 0
    1f16:	80 93 f1 01 	sts	0x01F1, r24
    1f1a:	2f c0       	rjmp	.+94     	; 0x1f7a <USB_Device_ProcessControlRequest+0x13e>

			break;
		#endif
		#if !defined(CONTROL_ONLY_DEVICE)
		case REQREC_ENDPOINT:
			if ((uint8_t)USB_ControlRequest.wValue == FEATURE_SEL_EndpointHalt)
    1f1c:	80 91 f6 01 	lds	r24, 0x01F6
    1f20:	81 11       	cpse	r24, r1
    1f22:	2b c0       	rjmp	.+86     	; 0x1f7a <USB_Device_ProcessControlRequest+0x13e>
			{
				uint8_t EndpointIndex = ((uint8_t)USB_ControlRequest.wIndex & ENDPOINT_EPNUM_MASK);
    1f24:	80 91 f8 01 	lds	r24, 0x01F8
    1f28:	90 91 f9 01 	lds	r25, 0x01F9
    1f2c:	8f 70       	andi	r24, 0x0F	; 15
    1f2e:	99 27       	eor	r25, r25

				if (EndpointIndex == ENDPOINT_CONTROLEP)
    1f30:	00 97       	sbiw	r24, 0x00	; 0
    1f32:	09 f4       	brne	.+2      	; 0x1f36 <USB_Device_ProcessControlRequest+0xfa>
    1f34:	cf c0       	rjmp	.+414    	; 0x20d4 <USB_Device_ProcessControlRequest+0x298>
			 */
			static inline void Endpoint_SelectEndpoint(const uint8_t Address) ATTR_ALWAYS_INLINE;
			static inline void Endpoint_SelectEndpoint(const uint8_t Address)
			{
				#if !defined(CONTROL_ONLY_DEVICE)
					UENUM = (Address & ENDPOINT_EPNUM_MASK);
    1f36:	80 93 e9 00 	sts	0x00E9, r24
			 * \return Boolean \c true if the currently selected endpoint is enabled, \c false otherwise.
			 */
			static inline bool Endpoint_IsEnabled(void) ATTR_WARN_UNUSED_RESULT ATTR_ALWAYS_INLINE;
			static inline bool Endpoint_IsEnabled(void)
			{
				return ((UECONX & (1 << EPEN)) ? true : false);
    1f3a:	20 91 eb 00 	lds	r18, 0x00EB
				  return;

				Endpoint_SelectEndpoint(EndpointIndex);

				if (Endpoint_IsEnabled())
    1f3e:	20 ff       	sbrs	r18, 0
    1f40:	1c c0       	rjmp	.+56     	; 0x1f7a <USB_Device_ProcessControlRequest+0x13e>
				{
					if (USB_ControlRequest.bRequest == REQ_SetFeature)
    1f42:	20 91 f5 01 	lds	r18, 0x01F5
    1f46:	23 30       	cpi	r18, 0x03	; 3
    1f48:	21 f4       	brne	.+8      	; 0x1f52 <USB_Device_ProcessControlRequest+0x116>
			 *  \ingroup Group_EndpointPacketManagement_AVR8
			 */
			static inline void Endpoint_StallTransaction(void) ATTR_ALWAYS_INLINE;
			static inline void Endpoint_StallTransaction(void)
			{
				UECONX |= (1 << STALLRQ);
    1f4a:	80 91 eb 00 	lds	r24, 0x00EB
    1f4e:	80 62       	ori	r24, 0x20	; 32
    1f50:	12 c0       	rjmp	.+36     	; 0x1f76 <USB_Device_ProcessControlRequest+0x13a>
			 *  \ingroup Group_EndpointPacketManagement_AVR8
			 */
			static inline void Endpoint_ClearStall(void) ATTR_ALWAYS_INLINE;
			static inline void Endpoint_ClearStall(void)
			{
				UECONX |= (1 << STALLRQC);
    1f52:	90 91 eb 00 	lds	r25, 0x00EB
    1f56:	90 61       	ori	r25, 0x10	; 16
    1f58:	90 93 eb 00 	sts	0x00EB, r25
			 *  \param[in] Address  Endpoint address whose FIFO buffers are to be reset.
			 */
			static inline void Endpoint_ResetEndpoint(const uint8_t Address) ATTR_ALWAYS_INLINE;
			static inline void Endpoint_ResetEndpoint(const uint8_t Address)
			{
				UERST = (1 << (Address & ENDPOINT_EPNUM_MASK));
    1f5c:	21 e0       	ldi	r18, 0x01	; 1
    1f5e:	30 e0       	ldi	r19, 0x00	; 0
    1f60:	01 c0       	rjmp	.+2      	; 0x1f64 <USB_Device_ProcessControlRequest+0x128>
    1f62:	22 0f       	add	r18, r18
    1f64:	8a 95       	dec	r24
    1f66:	ea f7       	brpl	.-6      	; 0x1f62 <USB_Device_ProcessControlRequest+0x126>
    1f68:	20 93 ea 00 	sts	0x00EA, r18
				UERST = 0;
    1f6c:	10 92 ea 00 	sts	0x00EA, r1

			/** Resets the data toggle of the currently selected endpoint. */
			static inline void Endpoint_ResetDataToggle(void) ATTR_ALWAYS_INLINE;
			static inline void Endpoint_ResetDataToggle(void)
			{
				UECONX |= (1 << RSTDT);
    1f70:	80 91 eb 00 	lds	r24, 0x00EB
    1f74:	88 60       	ori	r24, 0x08	; 8
    1f76:	80 93 eb 00 	sts	0x00EB, r24
			 */
			static inline void Endpoint_SelectEndpoint(const uint8_t Address) ATTR_ALWAYS_INLINE;
			static inline void Endpoint_SelectEndpoint(const uint8_t Address)
			{
				#if !defined(CONTROL_ONLY_DEVICE)
					UENUM = (Address & ENDPOINT_EPNUM_MASK);
    1f7a:	10 92 e9 00 	sts	0x00E9, r1
			 *  \note This is not applicable for non CONTROL type endpoints.
			 */
			static inline void Endpoint_ClearSETUP(void) ATTR_ALWAYS_INLINE;
			static inline void Endpoint_ClearSETUP(void)
			{
				UEINTX &= ~(1 << RXSTPI);
    1f7e:	80 91 e8 00 	lds	r24, 0x00E8
    1f82:	87 7f       	andi	r24, 0xF7	; 247
    1f84:	80 93 e8 00 	sts	0x00E8, r24

	Endpoint_SelectEndpoint(ENDPOINT_CONTROLEP);

	Endpoint_ClearSETUP();

	Endpoint_ClearStatusStage();
    1f88:	cf dd       	rcall	.-1122   	; 0x1b28 <Endpoint_ClearStatusStage>
    1f8a:	a4 c0       	rjmp	.+328    	; 0x20d4 <USB_Device_ProcessControlRequest+0x298>
    1f8c:	81 11       	cpse	r24, r1
					USB_Device_ClearSetFeature();
				}

				break;
			case REQ_SetAddress:
				if (bmRequestType == (REQDIR_HOSTTODEVICE | REQTYPE_STANDARD | REQREC_DEVICE))
    1f8e:	a2 c0       	rjmp	.+324    	; 0x20d4 <USB_Device_ProcessControlRequest+0x298>
    1f90:	80 91 f6 01 	lds	r24, 0x01F6
	}
}

static void USB_Device_SetAddress(void)
{
	uint8_t DeviceAddress = (USB_ControlRequest.wValue & 0x7F);
    1f94:	90 91 f7 01 	lds	r25, 0x01F7
    1f98:	8f 77       	andi	r24, 0x7F	; 127
    1f9a:	99 27       	eor	r25, r25
    1f9c:	18 2f       	mov	r17, r24
    1f9e:	90 91 e3 00 	lds	r25, 0x00E3
			#endif

			static inline void USB_Device_SetDeviceAddress(const uint8_t Address) ATTR_ALWAYS_INLINE;
			static inline void USB_Device_SetDeviceAddress(const uint8_t Address)
			{
				UDADDR = (UDADDR & (1 << ADDEN)) | (Address & 0x7F);
    1fa2:	90 78       	andi	r25, 0x80	; 128
    1fa4:	98 2b       	or	r25, r24
    1fa6:	90 93 e3 00 	sts	0x00E3, r25
    1faa:	80 91 e8 00 	lds	r24, 0x00E8
    1fae:	87 7f       	andi	r24, 0xF7	; 247
    1fb0:	80 93 e8 00 	sts	0x00E8, r24
    1fb4:	b9 dd       	rcall	.-1166   	; 0x1b28 <Endpoint_ClearStatusStage>

	USB_Device_SetDeviceAddress(DeviceAddress);

	Endpoint_ClearSETUP();

	Endpoint_ClearStatusStage();
    1fb6:	80 91 e8 00 	lds	r24, 0x00E8
			 *  \return Boolean \c true if the current endpoint is ready for an IN packet, \c false otherwise.
			 */
			static inline bool Endpoint_IsINReady(void) ATTR_WARN_UNUSED_RESULT ATTR_ALWAYS_INLINE;
			static inline bool Endpoint_IsINReady(void)
			{
				return ((UEINTX & (1 << TXINI)) ? true : false);
    1fba:	80 ff       	sbrs	r24, 0
    1fbc:	fc cf       	rjmp	.-8      	; 0x1fb6 <USB_Device_ProcessControlRequest+0x17a>

	while (!(Endpoint_IsINReady()));
    1fbe:	80 91 e3 00 	lds	r24, 0x00E3
			static inline void USB_Device_EnableDeviceAddress(const uint8_t Address) ATTR_ALWAYS_INLINE;
			static inline void USB_Device_EnableDeviceAddress(const uint8_t Address)
			{
				(void)Address;

				UDADDR |= (1 << ADDEN);
    1fc2:	80 68       	ori	r24, 0x80	; 128
    1fc4:	80 93 e3 00 	sts	0x00E3, r24
    1fc8:	11 23       	and	r17, r17
    1fca:	11 f0       	breq	.+4      	; 0x1fd0 <USB_Device_ProcessControlRequest+0x194>

	USB_Device_EnableDeviceAddress(DeviceAddress);

	USB_DeviceState = (DeviceAddress) ? DEVICE_STATE_Addressed : DEVICE_STATE_Default;
    1fcc:	83 e0       	ldi	r24, 0x03	; 3
    1fce:	01 c0       	rjmp	.+2      	; 0x1fd2 <USB_Device_ProcessControlRequest+0x196>
    1fd0:	82 e0       	ldi	r24, 0x02	; 2
    1fd2:	80 93 f3 01 	sts	0x01F3, r24
    1fd6:	7e c0       	rjmp	.+252    	; 0x20d4 <USB_Device_ProcessControlRequest+0x298>
    1fd8:	80 58       	subi	r24, 0x80	; 128
    1fda:	82 30       	cpi	r24, 0x02	; 2
				if (bmRequestType == (REQDIR_HOSTTODEVICE | REQTYPE_STANDARD | REQREC_DEVICE))
				  USB_Device_SetAddress();

				break;
			case REQ_GetDescriptor:
				if ((bmRequestType == (REQDIR_DEVICETOHOST | REQTYPE_STANDARD | REQREC_DEVICE)) ||
    1fdc:	08 f0       	brcs	.+2      	; 0x1fe0 <USB_Device_ProcessControlRequest+0x1a4>
    1fde:	7a c0       	rjmp	.+244    	; 0x20d4 <USB_Device_ProcessControlRequest+0x298>
    1fe0:	80 91 f6 01 	lds	r24, 0x01F6
	    !(defined(USE_FLASH_DESCRIPTORS) || defined(USE_EEPROM_DESCRIPTORS) || defined(USE_RAM_DESCRIPTORS))
	uint8_t DescriptorAddressSpace;
	#endif

	#if !defined(NO_INTERNAL_SERIAL) && (USE_INTERNAL_SERIAL != NO_DESCRIPTOR)
	if (USB_ControlRequest.wValue == ((DTYPE_String << 8) | USE_INTERNAL_SERIAL))
    1fe4:	90 91 f7 01 	lds	r25, 0x01F7
    1fe8:	8c 3d       	cpi	r24, 0xDC	; 220
    1fea:	23 e0       	ldi	r18, 0x03	; 3
    1fec:	92 07       	cpc	r25, r18
    1fee:	71 f5       	brne	.+92     	; 0x204c <USB_Device_ProcessControlRequest+0x210>
    1ff0:	83 e0       	ldi	r24, 0x03	; 3
    1ff2:	8a 83       	std	Y+2, r24	; 0x02
	{
		USB_Descriptor_Header_t Header;
		uint16_t                UnicodeString[INTERNAL_SERIAL_LENGTH_BITS / 4];
	} SignatureDescriptor;

	SignatureDescriptor.Header.Type = DTYPE_String;
    1ff4:	8a e2       	ldi	r24, 0x2A	; 42
    1ff6:	89 83       	std	Y+1, r24	; 0x01
	SignatureDescriptor.Header.Size = USB_STRING_LEN(INTERNAL_SERIAL_LENGTH_BITS / 4);
    1ff8:	4f b7       	in	r20, 0x3f	; 63
    1ffa:	f8 94       	cli
			static inline uint_reg_t GetGlobalInterruptMask(void)
			{
				GCC_MEMORY_BARRIER();

				#if (ARCH == ARCH_AVR8)
				return SREG;
    1ffc:	de 01       	movw	r26, r28
			static inline void GlobalInterruptDisable(void)
			{
				GCC_MEMORY_BARRIER();

				#if (ARCH == ARCH_AVR8)
				cli();
    1ffe:	13 96       	adiw	r26, 0x03	; 3

	USB_Device_GetSerialString(SignatureDescriptor.UnicodeString);
    2000:	20 e0       	ldi	r18, 0x00	; 0
    2002:	3e e0       	ldi	r19, 0x0E	; 14
				uint_reg_t CurrentGlobalInt = GetGlobalInterruptMask();
				GlobalInterruptDisable();

				uint8_t SigReadAddress = INTERNAL_SERIAL_START_ADDRESS;

				for (uint8_t SerialCharNum = 0; SerialCharNum < (INTERNAL_SERIAL_LENGTH_BITS / 4); SerialCharNum++)
    2004:	51 e2       	ldi	r21, 0x21	; 33
			static inline void USB_Device_GetSerialString(uint16_t* const UnicodeString)
			{
				uint_reg_t CurrentGlobalInt = GetGlobalInterruptMask();
				GlobalInterruptDisable();

				uint8_t SigReadAddress = INTERNAL_SERIAL_START_ADDRESS;
    2006:	e3 2f       	mov	r30, r19

				for (uint8_t SerialCharNum = 0; SerialCharNum < (INTERNAL_SERIAL_LENGTH_BITS / 4); SerialCharNum++)
				{
					uint8_t SerialByte = boot_signature_byte_get(SigReadAddress);
    2008:	f0 e0       	ldi	r31, 0x00	; 0
    200a:	50 93 57 00 	sts	0x0057, r21
    200e:	e4 91       	lpm	r30, Z+
    2010:	20 ff       	sbrs	r18, 0
    2012:	03 c0       	rjmp	.+6      	; 0x201a <USB_Device_ProcessControlRequest+0x1de>

					if (SerialCharNum & 0x01)
    2014:	e2 95       	swap	r30
    2016:	ef 70       	andi	r30, 0x0F	; 15
					{
						SerialByte >>= 4;
    2018:	3f 5f       	subi	r19, 0xFF	; 255
    201a:	ef 70       	andi	r30, 0x0F	; 15
						SigReadAddress++;
    201c:	8e 2f       	mov	r24, r30
					}

					SerialByte &= 0x0F;
    201e:	90 e0       	ldi	r25, 0x00	; 0
    2020:	ea 30       	cpi	r30, 0x0A	; 10
    2022:	10 f0       	brcs	.+4      	; 0x2028 <USB_Device_ProcessControlRequest+0x1ec>

					UnicodeString[SerialCharNum] = cpu_to_le16((SerialByte >= 10) ?
    2024:	c7 96       	adiw	r24, 0x37	; 55
    2026:	01 c0       	rjmp	.+2      	; 0x202a <USB_Device_ProcessControlRequest+0x1ee>
    2028:	c0 96       	adiw	r24, 0x30	; 48
    202a:	8d 93       	st	X+, r24
    202c:	9d 93       	st	X+, r25
    202e:	2f 5f       	subi	r18, 0xFF	; 255
    2030:	24 31       	cpi	r18, 0x14	; 20
				uint_reg_t CurrentGlobalInt = GetGlobalInterruptMask();
				GlobalInterruptDisable();

				uint8_t SigReadAddress = INTERNAL_SERIAL_START_ADDRESS;

				for (uint8_t SerialCharNum = 0; SerialCharNum < (INTERNAL_SERIAL_LENGTH_BITS / 4); SerialCharNum++)
    2032:	49 f7       	brne	.-46     	; 0x2006 <USB_Device_ProcessControlRequest+0x1ca>
    2034:	4f bf       	out	0x3f, r20	; 63
    2036:	80 91 e8 00 	lds	r24, 0x00E8
			 *  \note This is not applicable for non CONTROL type endpoints.
			 */
			static inline void Endpoint_ClearSETUP(void) ATTR_ALWAYS_INLINE;
			static inline void Endpoint_ClearSETUP(void)
			{
				UEINTX &= ~(1 << RXSTPI);
    203a:	87 7f       	andi	r24, 0xF7	; 247
    203c:	80 93 e8 00 	sts	0x00E8, r24
    2040:	6a e2       	ldi	r22, 0x2A	; 42
    2042:	70 e0       	ldi	r23, 0x00	; 0

	Endpoint_ClearSETUP();

	Endpoint_Write_Control_Stream_LE(&SignatureDescriptor, sizeof(SignatureDescriptor));
    2044:	ce 01       	movw	r24, r28
    2046:	01 96       	adiw	r24, 0x01	; 1
    2048:	f9 db       	rcall	.-2062   	; 0x183c <Endpoint_Write_Control_Stream_LE>
    204a:	12 c0       	rjmp	.+36     	; 0x2070 <USB_Device_ProcessControlRequest+0x234>
    204c:	ae 01       	movw	r20, r28
    204e:	45 5d       	subi	r20, 0xD5	; 213
    2050:	5f 4f       	sbci	r21, 0xFF	; 255
		USB_Device_GetInternalSerialDescriptor();
		return;
	}
	#endif

	if ((DescriptorSize = CALLBACK_USB_GetDescriptor(USB_ControlRequest.wValue, USB_ControlRequest.wIndex,
    2052:	60 91 f8 01 	lds	r22, 0x01F8
    2056:	0e 94 d2 03 	call	0x7a4	; 0x7a4 <CALLBACK_USB_GetDescriptor>
    205a:	00 97       	sbiw	r24, 0x00	; 0
    205c:	d9 f1       	breq	.+118    	; 0x20d4 <USB_Device_ProcessControlRequest+0x298>
    205e:	20 91 e8 00 	lds	r18, 0x00E8
    2062:	27 7f       	andi	r18, 0xF7	; 247
    2064:	20 93 e8 00 	sts	0x00E8, r18
    2068:	bc 01       	movw	r22, r24
    206a:	8b a5       	ldd	r24, Y+43	; 0x2b
    206c:	9c a5       	ldd	r25, Y+44	; 0x2c
	#if defined(USE_RAM_DESCRIPTORS) || !defined(ARCH_HAS_MULTI_ADDRESS_SPACE)
	Endpoint_Write_Control_Stream_LE(DescriptorPointer, DescriptorSize);
	#elif defined(USE_EEPROM_DESCRIPTORS)
	Endpoint_Write_Control_EStream_LE(DescriptorPointer, DescriptorSize);
	#elif defined(USE_FLASH_DESCRIPTORS)
	Endpoint_Write_Control_PStream_LE(DescriptorPointer, DescriptorSize);
    206e:	86 dc       	rcall	.-1780   	; 0x197c <Endpoint_Write_Control_PStream_LE>
    2070:	80 91 e8 00 	lds	r24, 0x00E8
    2074:	8b 77       	andi	r24, 0x7B	; 123
    2076:	80 93 e8 00 	sts	0x00E8, r24
			 */
			static inline void Endpoint_ClearOUT(void) ATTR_ALWAYS_INLINE;
			static inline void Endpoint_ClearOUT(void)
			{
				#if !defined(CONTROL_ONLY_DEVICE)
					UEINTX &= ~((1 << RXOUTI) | (1 << FIFOCON));
    207a:	2c c0       	rjmp	.+88     	; 0x20d4 <USB_Device_ProcessControlRequest+0x298>
    207c:	80 38       	cpi	r24, 0x80	; 128
    207e:	51 f5       	brne	.+84     	; 0x20d4 <USB_Device_ProcessControlRequest+0x298>
    2080:	80 91 e8 00 	lds	r24, 0x00E8
					USB_Device_GetDescriptor();
				}

				break;
			case REQ_GetConfiguration:
				if (bmRequestType == (REQDIR_DEVICETOHOST | REQTYPE_STANDARD | REQREC_DEVICE))
    2084:	87 7f       	andi	r24, 0xF7	; 247
    2086:	80 93 e8 00 	sts	0x00E8, r24
			 *  \note This is not applicable for non CONTROL type endpoints.
			 */
			static inline void Endpoint_ClearSETUP(void) ATTR_ALWAYS_INLINE;
			static inline void Endpoint_ClearSETUP(void)
			{
				UEINTX &= ~(1 << RXSTPI);
    208a:	80 91 ef 01 	lds	r24, 0x01EF
    208e:	80 93 f1 00 	sts	0x00F1, r24

static void USB_Device_GetConfiguration(void)
{
	Endpoint_ClearSETUP();

	Endpoint_Write_8(USB_Device_ConfigurationNumber);
    2092:	80 91 e8 00 	lds	r24, 0x00E8
			 *  \param[in] Data  Data to write into the the currently selected endpoint's FIFO buffer.
			 */
			static inline void Endpoint_Write_8(const uint8_t Data) ATTR_ALWAYS_INLINE;
			static inline void Endpoint_Write_8(const uint8_t Data)
			{
				UEDATX = Data;
    2096:	8e 77       	andi	r24, 0x7E	; 126
    2098:	75 cf       	rjmp	.-278    	; 0x1f84 <USB_Device_ProcessControlRequest+0x148>
			 */
			static inline void Endpoint_ClearIN(void) ATTR_ALWAYS_INLINE;
			static inline void Endpoint_ClearIN(void)
			{
				#if !defined(CONTROL_ONLY_DEVICE)
					UEINTX &= ~((1 << TXINI) | (1 << FIFOCON));
    209a:	81 11       	cpse	r24, r1
    209c:	1b c0       	rjmp	.+54     	; 0x20d4 <USB_Device_ProcessControlRequest+0x298>
    209e:	90 91 f6 01 	lds	r25, 0x01F6
				if (bmRequestType == (REQDIR_DEVICETOHOST | REQTYPE_STANDARD | REQREC_DEVICE))
				  USB_Device_GetConfiguration();

				break;
			case REQ_SetConfiguration:
				if (bmRequestType == (REQDIR_HOSTTODEVICE | REQTYPE_STANDARD | REQREC_DEVICE))
    20a2:	92 30       	cpi	r25, 0x02	; 2
    20a4:	b8 f4       	brcc	.+46     	; 0x20d4 <USB_Device_ProcessControlRequest+0x298>
}

static void USB_Device_SetConfiguration(void)
{
	#if defined(FIXED_NUM_CONFIGURATIONS)
	if ((uint8_t)USB_ControlRequest.wValue > FIXED_NUM_CONFIGURATIONS)
    20a6:	80 91 e8 00 	lds	r24, 0x00E8
    20aa:	87 7f       	andi	r24, 0xF7	; 247
    20ac:	80 93 e8 00 	sts	0x00E8, r24
			 *  \note This is not applicable for non CONTROL type endpoints.
			 */
			static inline void Endpoint_ClearSETUP(void) ATTR_ALWAYS_INLINE;
			static inline void Endpoint_ClearSETUP(void)
			{
				UEINTX &= ~(1 << RXSTPI);
    20b0:	90 93 ef 01 	sts	0x01EF, r25
    20b4:	39 dd       	rcall	.-1422   	; 0x1b28 <Endpoint_ClearStatusStage>
    20b6:	80 91 ef 01 	lds	r24, 0x01EF
	#endif
	#endif

	Endpoint_ClearSETUP();

	USB_Device_ConfigurationNumber = (uint8_t)USB_ControlRequest.wValue;
    20ba:	81 11       	cpse	r24, r1

	Endpoint_ClearStatusStage();
    20bc:	04 c0       	rjmp	.+8      	; 0x20c6 <USB_Device_ProcessControlRequest+0x28a>
    20be:	80 91 e3 00 	lds	r24, 0x00E3

	if (USB_Device_ConfigurationNumber)
    20c2:	87 ff       	sbrs	r24, 7
    20c4:	02 c0       	rjmp	.+4      	; 0x20ca <USB_Device_ProcessControlRequest+0x28e>
    20c6:	84 e0       	ldi	r24, 0x04	; 4
			}

			static inline bool USB_Device_IsAddressSet(void) ATTR_ALWAYS_INLINE ATTR_WARN_UNUSED_RESULT;
			static inline bool USB_Device_IsAddressSet(void)
			{
				return (UDADDR & (1 << ADDEN));
    20c8:	01 c0       	rjmp	.+2      	; 0x20cc <USB_Device_ProcessControlRequest+0x290>
    20ca:	81 e0       	ldi	r24, 0x01	; 1
	  USB_DeviceState = DEVICE_STATE_Configured;
	else
	  USB_DeviceState = (USB_Device_IsAddressSet()) ? DEVICE_STATE_Configured : DEVICE_STATE_Powered;
    20cc:	80 93 f3 01 	sts	0x01F3, r24
    20d0:	0e 94 6b 03 	call	0x6d6	; 0x6d6 <EVENT_USB_Device_ConfigurationChanged>
    20d4:	80 91 e8 00 	lds	r24, 0x00E8
    20d8:	83 ff       	sbrs	r24, 3

	EVENT_USB_Device_ConfigurationChanged();
    20da:	0a c0       	rjmp	.+20     	; 0x20f0 <USB_Device_ProcessControlRequest+0x2b4>
    20dc:	80 91 e8 00 	lds	r24, 0x00E8
			 *  \return Boolean \c true if the selected endpoint has received a SETUP packet, \c false otherwise.
			 */
			static inline bool Endpoint_IsSETUPReceived(void) ATTR_WARN_UNUSED_RESULT ATTR_ALWAYS_INLINE;
			static inline bool Endpoint_IsSETUPReceived(void)
			{
				return ((UEINTX & (1 << RXSTPI)) ? true : false);
    20e0:	87 7f       	andi	r24, 0xF7	; 247
			default:
				break;
		}
	}

	if (Endpoint_IsSETUPReceived())
    20e2:	80 93 e8 00 	sts	0x00E8, r24
			 *  \note This is not applicable for non CONTROL type endpoints.
			 */
			static inline void Endpoint_ClearSETUP(void) ATTR_ALWAYS_INLINE;
			static inline void Endpoint_ClearSETUP(void)
			{
				UEINTX &= ~(1 << RXSTPI);
    20e6:	80 91 eb 00 	lds	r24, 0x00EB
    20ea:	80 62       	ori	r24, 0x20	; 32
    20ec:	80 93 eb 00 	sts	0x00EB, r24
			 *  \ingroup Group_EndpointPacketManagement_AVR8
			 */
			static inline void Endpoint_StallTransaction(void) ATTR_ALWAYS_INLINE;
			static inline void Endpoint_StallTransaction(void)
			{
				UECONX |= (1 << STALLRQ);
    20f0:	ac 96       	adiw	r28, 0x2c	; 44
    20f2:	0f b6       	in	r0, 0x3f	; 63
    20f4:	f8 94       	cli
    20f6:	de bf       	out	0x3e, r29	; 62
    20f8:	0f be       	out	0x3f, r0	; 63
	{
		Endpoint_ClearSETUP();
		Endpoint_StallTransaction();
	}
}
    20fa:	cd bf       	out	0x3d, r28	; 61
    20fc:	df 91       	pop	r29
    20fe:	cf 91       	pop	r28
    2100:	1f 91       	pop	r17
    2102:	08 95       	ret

00002104 <USB_Event_Stub>:
    2104:	08 95       	ret

00002106 <USB_USBTask>:
    2106:	cf 93       	push	r28
    2108:	80 91 f3 01 	lds	r24, 0x01F3
    210c:	88 23       	and	r24, r24
}

#if defined(USB_CAN_BE_DEVICE)
static void USB_DeviceTask(void)
{
	if (USB_DeviceState == DEVICE_STATE_Unattached)
    210e:	a9 f0       	breq	.+42     	; 0x213a <USB_USBTask+0x34>
			 */
			static inline uint8_t Endpoint_GetCurrentEndpoint(void) ATTR_WARN_UNUSED_RESULT ATTR_ALWAYS_INLINE;
			static inline uint8_t Endpoint_GetCurrentEndpoint(void)
			{
				#if !defined(CONTROL_ONLY_DEVICE)
					return ((UENUM & ENDPOINT_EPNUM_MASK) | Endpoint_GetEndpointDirection());
    2110:	80 91 e9 00 	lds	r24, 0x00E9
    2114:	8f 70       	andi	r24, 0x0F	; 15
			 *  \return The currently selected endpoint's direction, as a \c ENDPOINT_DIR_* mask.
			 */
			static inline uint8_t Endpoint_GetEndpointDirection(void) ATTR_WARN_UNUSED_RESULT ATTR_ALWAYS_INLINE;
			static inline uint8_t Endpoint_GetEndpointDirection(void)
			{
				return (UECFG0X & (1 << EPDIR)) ? ENDPOINT_DIR_IN : ENDPOINT_DIR_OUT;
    2116:	90 91 ec 00 	lds	r25, 0x00EC
    211a:	90 ff       	sbrs	r25, 0
    211c:	02 c0       	rjmp	.+4      	; 0x2122 <USB_USBTask+0x1c>
    211e:	90 e8       	ldi	r25, 0x80	; 128
    2120:	01 c0       	rjmp	.+2      	; 0x2124 <USB_USBTask+0x1e>
    2122:	90 e0       	ldi	r25, 0x00	; 0
			 */
			static inline uint8_t Endpoint_GetCurrentEndpoint(void) ATTR_WARN_UNUSED_RESULT ATTR_ALWAYS_INLINE;
			static inline uint8_t Endpoint_GetCurrentEndpoint(void)
			{
				#if !defined(CONTROL_ONLY_DEVICE)
					return ((UENUM & ENDPOINT_EPNUM_MASK) | Endpoint_GetEndpointDirection());
    2124:	c9 2f       	mov	r28, r25
    2126:	c8 2b       	or	r28, r24
			 */
			static inline void Endpoint_SelectEndpoint(const uint8_t Address) ATTR_ALWAYS_INLINE;
			static inline void Endpoint_SelectEndpoint(const uint8_t Address)
			{
				#if !defined(CONTROL_ONLY_DEVICE)
					UENUM = (Address & ENDPOINT_EPNUM_MASK);
    2128:	10 92 e9 00 	sts	0x00E9, r1
			 *  \return Boolean \c true if the selected endpoint has received a SETUP packet, \c false otherwise.
			 */
			static inline bool Endpoint_IsSETUPReceived(void) ATTR_WARN_UNUSED_RESULT ATTR_ALWAYS_INLINE;
			static inline bool Endpoint_IsSETUPReceived(void)
			{
				return ((UEINTX & (1 << RXSTPI)) ? true : false);
    212c:	80 91 e8 00 	lds	r24, 0x00E8

	uint8_t PrevEndpoint = Endpoint_GetCurrentEndpoint();

	Endpoint_SelectEndpoint(ENDPOINT_CONTROLEP);

	if (Endpoint_IsSETUPReceived())
    2130:	83 fd       	sbrc	r24, 3
	  USB_Device_ProcessControlRequest();
    2132:	84 de       	rcall	.-760    	; 0x1e3c <USB_Device_ProcessControlRequest>
    2134:	cf 70       	andi	r28, 0x0F	; 15
			 */
			static inline void Endpoint_SelectEndpoint(const uint8_t Address) ATTR_ALWAYS_INLINE;
			static inline void Endpoint_SelectEndpoint(const uint8_t Address)
			{
				#if !defined(CONTROL_ONLY_DEVICE)
					UENUM = (Address & ENDPOINT_EPNUM_MASK);
    2136:	c0 93 e9 00 	sts	0x00E9, r28
    213a:	cf 91       	pop	r28
	#elif defined(USB_CAN_BE_HOST)
		USB_HostTask();
	#elif defined(USB_CAN_BE_DEVICE)
		USB_DeviceTask();
	#endif
}
    213c:	08 95       	ret

0000213e <CDC_Device_ConfigureEndpoints>:
    213e:	cf 93       	push	r28
			break;
	}
}

bool CDC_Device_ConfigureEndpoints(USB_ClassInfo_CDC_Device_t* const CDCInterfaceInfo)
{
    2140:	df 93       	push	r29
    2142:	ec 01       	movw	r28, r24
	memset(&CDCInterfaceInfo->State, 0x00, sizeof(CDCInterfaceInfo->State));
    2144:	40 96       	adiw	r24, 0x10	; 16
    2146:	fc 01       	movw	r30, r24
    2148:	8b e0       	ldi	r24, 0x0B	; 11
    214a:	df 01       	movw	r26, r30
    214c:	1d 92       	st	X+, r1
    214e:	8a 95       	dec	r24
    2150:	e9 f7       	brne	.-6      	; 0x214c <CDC_Device_ConfigureEndpoints+0xe>

	CDCInterfaceInfo->Config.DataINEndpoint.Type       = EP_TYPE_BULK;
    2152:	82 e0       	ldi	r24, 0x02	; 2
    2154:	8c 83       	std	Y+4, r24	; 0x04
	CDCInterfaceInfo->Config.DataOUTEndpoint.Type      = EP_TYPE_BULK;
    2156:	89 87       	std	Y+9, r24	; 0x09
	CDCInterfaceInfo->Config.NotificationEndpoint.Type = EP_TYPE_INTERRUPT;
    2158:	83 e0       	ldi	r24, 0x03	; 3
    215a:	8e 87       	std	Y+14, r24	; 0x0e

	if (!(Endpoint_ConfigureEndpointTable(&CDCInterfaceInfo->Config.DataINEndpoint, 1)))
    215c:	61 e0       	ldi	r22, 0x01	; 1
    215e:	ce 01       	movw	r24, r28
    2160:	01 96       	adiw	r24, 0x01	; 1
    2162:	a4 dc       	rcall	.-1720   	; 0x1aac <Endpoint_ConfigureEndpointTable>
    2164:	88 23       	and	r24, r24
    2166:	61 f0       	breq	.+24     	; 0x2180 <CDC_Device_ConfigureEndpoints+0x42>
    2168:	61 e0       	ldi	r22, 0x01	; 1
	  return false;

	if (!(Endpoint_ConfigureEndpointTable(&CDCInterfaceInfo->Config.DataOUTEndpoint, 1)))
    216a:	ce 01       	movw	r24, r28
    216c:	06 96       	adiw	r24, 0x06	; 6
    216e:	9e dc       	rcall	.-1732   	; 0x1aac <Endpoint_ConfigureEndpointTable>
    2170:	88 23       	and	r24, r24
    2172:	31 f0       	breq	.+12     	; 0x2180 <CDC_Device_ConfigureEndpoints+0x42>
    2174:	61 e0       	ldi	r22, 0x01	; 1
    2176:	ce 01       	movw	r24, r28
	  return false;

	if (!(Endpoint_ConfigureEndpointTable(&CDCInterfaceInfo->Config.NotificationEndpoint, 1)))
    2178:	0b 96       	adiw	r24, 0x0b	; 11
    217a:	df 91       	pop	r29
    217c:	cf 91       	pop	r28
	  return false;

	return true;
}
    217e:	96 cc       	rjmp	.-1748   	; 0x1aac <Endpoint_ConfigureEndpointTable>
    2180:	80 e0       	ldi	r24, 0x00	; 0
	  return false;

	if (!(Endpoint_ConfigureEndpointTable(&CDCInterfaceInfo->Config.DataOUTEndpoint, 1)))
	  return false;

	if (!(Endpoint_ConfigureEndpointTable(&CDCInterfaceInfo->Config.NotificationEndpoint, 1)))
    2182:	df 91       	pop	r29
    2184:	cf 91       	pop	r28
	  return false;

	return true;
}
    2186:	08 95       	ret

00002188 <CDC_Device_SendByte>:
	return Endpoint_Write_Stream_LE(Buffer, Length, NULL);
}

uint8_t CDC_Device_SendByte(USB_ClassInfo_CDC_Device_t* const CDCInterfaceInfo,
                            const uint8_t Data)
{
    2188:	cf 93       	push	r28
    218a:	c6 2f       	mov	r28, r22
	if ((USB_DeviceState != DEVICE_STATE_Configured) || !(CDCInterfaceInfo->State.LineEncoding.BaudRateBPS))
    218c:	20 91 f3 01 	lds	r18, 0x01F3
    2190:	24 30       	cpi	r18, 0x04	; 4
    2192:	f1 f4       	brne	.+60     	; 0x21d0 <CDC_Device_SendByte+0x48>
    2194:	fc 01       	movw	r30, r24
    2196:	44 89       	ldd	r20, Z+20	; 0x14
    2198:	55 89       	ldd	r21, Z+21	; 0x15
    219a:	66 89       	ldd	r22, Z+22	; 0x16
    219c:	77 89       	ldd	r23, Z+23	; 0x17
    219e:	45 2b       	or	r20, r21
    21a0:	46 2b       	or	r20, r22
    21a2:	47 2b       	or	r20, r23
    21a4:	a9 f0       	breq	.+42     	; 0x21d0 <CDC_Device_SendByte+0x48>
			 */
			static inline void Endpoint_SelectEndpoint(const uint8_t Address) ATTR_ALWAYS_INLINE;
			static inline void Endpoint_SelectEndpoint(const uint8_t Address)
			{
				#if !defined(CONTROL_ONLY_DEVICE)
					UENUM = (Address & ENDPOINT_EPNUM_MASK);
    21a6:	81 81       	ldd	r24, Z+1	; 0x01
    21a8:	8f 70       	andi	r24, 0x0F	; 15
    21aa:	80 93 e9 00 	sts	0x00E9, r24
			 *          on its direction.
			 */
			static inline bool Endpoint_IsReadWriteAllowed(void) ATTR_WARN_UNUSED_RESULT ATTR_ALWAYS_INLINE;
			static inline bool Endpoint_IsReadWriteAllowed(void)
			{
				return ((UEINTX & (1 << RWAL)) ? true : false);
    21ae:	80 91 e8 00 	lds	r24, 0x00E8
	  return ENDPOINT_RWSTREAM_DeviceDisconnected;

	Endpoint_SelectEndpoint(CDCInterfaceInfo->Config.DataINEndpoint.Address);

	if (!(Endpoint_IsReadWriteAllowed()))
    21b2:	85 ff       	sbrs	r24, 5
    21b4:	04 c0       	rjmp	.+8      	; 0x21be <CDC_Device_SendByte+0x36>
			 *  \param[in] Data  Data to write into the the currently selected endpoint's FIFO buffer.
			 */
			static inline void Endpoint_Write_8(const uint8_t Data) ATTR_ALWAYS_INLINE;
			static inline void Endpoint_Write_8(const uint8_t Data)
			{
				UEDATX = Data;
    21b6:	c0 93 f1 00 	sts	0x00F1, r28
		if ((ErrorCode = Endpoint_WaitUntilReady()) != ENDPOINT_READYWAIT_NoError)
		  return ErrorCode;
	}

	Endpoint_Write_8(Data);
	return ENDPOINT_READYWAIT_NoError;
    21ba:	80 e0       	ldi	r24, 0x00	; 0
    21bc:	0a c0       	rjmp	.+20     	; 0x21d2 <CDC_Device_SendByte+0x4a>
			 */
			static inline void Endpoint_ClearIN(void) ATTR_ALWAYS_INLINE;
			static inline void Endpoint_ClearIN(void)
			{
				#if !defined(CONTROL_ONLY_DEVICE)
					UEINTX &= ~((1 << TXINI) | (1 << FIFOCON));
    21be:	80 91 e8 00 	lds	r24, 0x00E8
    21c2:	8e 77       	andi	r24, 0x7E	; 126
    21c4:	80 93 e8 00 	sts	0x00E8, r24
	{
		Endpoint_ClearIN();

		uint8_t ErrorCode;

		if ((ErrorCode = Endpoint_WaitUntilReady()) != ENDPOINT_READYWAIT_NoError)
    21c8:	d0 dc       	rcall	.-1632   	; 0x1b6a <Endpoint_WaitUntilReady>
    21ca:	88 23       	and	r24, r24
    21cc:	a1 f3       	breq	.-24     	; 0x21b6 <CDC_Device_SendByte+0x2e>
    21ce:	01 c0       	rjmp	.+2      	; 0x21d2 <CDC_Device_SendByte+0x4a>
    21d0:	82 e0       	ldi	r24, 0x02	; 2

uint8_t CDC_Device_SendByte(USB_ClassInfo_CDC_Device_t* const CDCInterfaceInfo,
                            const uint8_t Data)
{
	if ((USB_DeviceState != DEVICE_STATE_Configured) || !(CDCInterfaceInfo->State.LineEncoding.BaudRateBPS))
	  return ENDPOINT_RWSTREAM_DeviceDisconnected;
    21d2:	cf 91       	pop	r28
		  return ErrorCode;
	}

	Endpoint_Write_8(Data);
	return ENDPOINT_READYWAIT_NoError;
}
    21d4:	08 95       	ret

000021d6 <CDC_Device_Flush>:

uint8_t CDC_Device_Flush(USB_ClassInfo_CDC_Device_t* const CDCInterfaceInfo)
{
    21d6:	20 91 f3 01 	lds	r18, 0x01F3
    21da:	24 30       	cpi	r18, 0x04	; 4
    21dc:	29 f5       	brne	.+74     	; 0x2228 <CDC_Device_Flush+0x52>
	if ((USB_DeviceState != DEVICE_STATE_Configured) || !(CDCInterfaceInfo->State.LineEncoding.BaudRateBPS))
    21de:	fc 01       	movw	r30, r24
    21e0:	44 89       	ldd	r20, Z+20	; 0x14
    21e2:	55 89       	ldd	r21, Z+21	; 0x15
    21e4:	66 89       	ldd	r22, Z+22	; 0x16
    21e6:	77 89       	ldd	r23, Z+23	; 0x17
    21e8:	45 2b       	or	r20, r21
    21ea:	46 2b       	or	r20, r22
    21ec:	47 2b       	or	r20, r23
    21ee:	e1 f0       	breq	.+56     	; 0x2228 <CDC_Device_Flush+0x52>
			 */
			static inline void Endpoint_SelectEndpoint(const uint8_t Address) ATTR_ALWAYS_INLINE;
			static inline void Endpoint_SelectEndpoint(const uint8_t Address)
			{
				#if !defined(CONTROL_ONLY_DEVICE)
					UENUM = (Address & ENDPOINT_EPNUM_MASK);
    21f0:	81 81       	ldd	r24, Z+1	; 0x01
    21f2:	8f 70       	andi	r24, 0x0F	; 15
    21f4:	80 93 e9 00 	sts	0x00E9, r24
				#if (defined(USB_SERIES_6_AVR) || defined(USB_SERIES_7_AVR))
					return UEBCX;
				#elif defined(USB_SERIES_4_AVR)
					return (((uint16_t)UEBCHX << 8) | UEBCLX);
				#elif defined(USB_SERIES_2_AVR)
					return UEBCLX;
    21f8:	80 91 f2 00 	lds	r24, 0x00F2

	uint8_t ErrorCode;

	Endpoint_SelectEndpoint(CDCInterfaceInfo->Config.DataINEndpoint.Address);

	if (!(Endpoint_BytesInEndpoint()))
    21fc:	81 11       	cpse	r24, r1
    21fe:	02 c0       	rjmp	.+4      	; 0x2204 <CDC_Device_Flush+0x2e>
	  return ENDPOINT_READYWAIT_NoError;
    2200:	80 e0       	ldi	r24, 0x00	; 0
    2202:	08 95       	ret
			 *          on its direction.
			 */
			static inline bool Endpoint_IsReadWriteAllowed(void) ATTR_WARN_UNUSED_RESULT ATTR_ALWAYS_INLINE;
			static inline bool Endpoint_IsReadWriteAllowed(void)
			{
				return ((UEINTX & (1 << RWAL)) ? true : false);
    2204:	90 91 e8 00 	lds	r25, 0x00E8
			 */
			static inline void Endpoint_ClearIN(void) ATTR_ALWAYS_INLINE;
			static inline void Endpoint_ClearIN(void)
			{
				#if !defined(CONTROL_ONLY_DEVICE)
					UEINTX &= ~((1 << TXINI) | (1 << FIFOCON));
    2208:	80 91 e8 00 	lds	r24, 0x00E8
    220c:	8e 77       	andi	r24, 0x7E	; 126
    220e:	80 93 e8 00 	sts	0x00E8, r24

	bool BankFull = !(Endpoint_IsReadWriteAllowed());

	Endpoint_ClearIN();

	if (BankFull)
    2212:	95 fd       	sbrc	r25, 5
    2214:	f5 cf       	rjmp	.-22     	; 0x2200 <CDC_Device_Flush+0x2a>
	{
		if ((ErrorCode = Endpoint_WaitUntilReady()) != ENDPOINT_READYWAIT_NoError)
    2216:	a9 dc       	rcall	.-1710   	; 0x1b6a <Endpoint_WaitUntilReady>
    2218:	81 11       	cpse	r24, r1
    221a:	07 c0       	rjmp	.+14     	; 0x222a <CDC_Device_Flush+0x54>
    221c:	90 91 e8 00 	lds	r25, 0x00E8
    2220:	9e 77       	andi	r25, 0x7E	; 126
    2222:	90 93 e8 00 	sts	0x00E8, r25
    2226:	08 95       	ret
    2228:	82 e0       	ldi	r24, 0x02	; 2
}

uint8_t CDC_Device_Flush(USB_ClassInfo_CDC_Device_t* const CDCInterfaceInfo)
{
	if ((USB_DeviceState != DEVICE_STATE_Configured) || !(CDCInterfaceInfo->State.LineEncoding.BaudRateBPS))
	  return ENDPOINT_RWSTREAM_DeviceDisconnected;
    222a:	08 95       	ret

0000222c <CDC_Device_USBTask>:

		Endpoint_ClearIN();
	}

	return ENDPOINT_READYWAIT_NoError;
}
    222c:	20 91 f3 01 	lds	r18, 0x01F3
    2230:	24 30       	cpi	r18, 0x04	; 4
    2232:	89 f4       	brne	.+34     	; 0x2256 <CDC_Device_USBTask+0x2a>
	return true;
}

void CDC_Device_USBTask(USB_ClassInfo_CDC_Device_t* const CDCInterfaceInfo)
{
	if ((USB_DeviceState != DEVICE_STATE_Configured) || !(CDCInterfaceInfo->State.LineEncoding.BaudRateBPS))
    2234:	fc 01       	movw	r30, r24
    2236:	44 89       	ldd	r20, Z+20	; 0x14
    2238:	55 89       	ldd	r21, Z+21	; 0x15
    223a:	66 89       	ldd	r22, Z+22	; 0x16
    223c:	77 89       	ldd	r23, Z+23	; 0x17
    223e:	45 2b       	or	r20, r21
    2240:	46 2b       	or	r20, r22
    2242:	47 2b       	or	r20, r23
    2244:	41 f0       	breq	.+16     	; 0x2256 <CDC_Device_USBTask+0x2a>
			 */
			static inline void Endpoint_SelectEndpoint(const uint8_t Address) ATTR_ALWAYS_INLINE;
			static inline void Endpoint_SelectEndpoint(const uint8_t Address)
			{
				#if !defined(CONTROL_ONLY_DEVICE)
					UENUM = (Address & ENDPOINT_EPNUM_MASK);
    2246:	21 81       	ldd	r18, Z+1	; 0x01
    2248:	2f 70       	andi	r18, 0x0F	; 15
    224a:	20 93 e9 00 	sts	0x00E9, r18
			 *  \return Boolean \c true if the current endpoint is ready for an IN packet, \c false otherwise.
			 */
			static inline bool Endpoint_IsINReady(void) ATTR_WARN_UNUSED_RESULT ATTR_ALWAYS_INLINE;
			static inline bool Endpoint_IsINReady(void)
			{
				return ((UEINTX & (1 << TXINI)) ? true : false);
    224e:	20 91 e8 00 	lds	r18, 0x00E8
	  return;

	#if !defined(NO_CLASS_DRIVER_AUTOFLUSH)
	Endpoint_SelectEndpoint(CDCInterfaceInfo->Config.DataINEndpoint.Address);

	if (Endpoint_IsINReady())
    2252:	20 fd       	sbrc	r18, 0
	  CDC_Device_Flush(CDCInterfaceInfo);
    2254:	c0 cf       	rjmp	.-128    	; 0x21d6 <CDC_Device_Flush>
    2256:	08 95       	ret

00002258 <CDC_Device_ReceiveByte>:
		return 0;
	}
}

int16_t CDC_Device_ReceiveByte(USB_ClassInfo_CDC_Device_t* const CDCInterfaceInfo)
{
    2258:	20 91 f3 01 	lds	r18, 0x01F3
    225c:	24 30       	cpi	r18, 0x04	; 4
    225e:	19 f0       	breq	.+6      	; 0x2266 <CDC_Device_ReceiveByte+0xe>
	if ((USB_DeviceState != DEVICE_STATE_Configured) || !(CDCInterfaceInfo->State.LineEncoding.BaudRateBPS))
	  return -1;
    2260:	2f ef       	ldi	r18, 0xFF	; 255
    2262:	3f ef       	ldi	r19, 0xFF	; 255
    2264:	24 c0       	rjmp	.+72     	; 0x22ae <CDC_Device_ReceiveByte+0x56>
	}
}

int16_t CDC_Device_ReceiveByte(USB_ClassInfo_CDC_Device_t* const CDCInterfaceInfo)
{
	if ((USB_DeviceState != DEVICE_STATE_Configured) || !(CDCInterfaceInfo->State.LineEncoding.BaudRateBPS))
    2266:	fc 01       	movw	r30, r24
    2268:	44 89       	ldd	r20, Z+20	; 0x14
    226a:	55 89       	ldd	r21, Z+21	; 0x15
    226c:	66 89       	ldd	r22, Z+22	; 0x16
    226e:	77 89       	ldd	r23, Z+23	; 0x17
    2270:	45 2b       	or	r20, r21
    2272:	46 2b       	or	r20, r22
    2274:	47 2b       	or	r20, r23
    2276:	a1 f3       	breq	.-24     	; 0x2260 <CDC_Device_ReceiveByte+0x8>
			 */
			static inline void Endpoint_SelectEndpoint(const uint8_t Address) ATTR_ALWAYS_INLINE;
			static inline void Endpoint_SelectEndpoint(const uint8_t Address)
			{
				#if !defined(CONTROL_ONLY_DEVICE)
					UENUM = (Address & ENDPOINT_EPNUM_MASK);
    2278:	86 81       	ldd	r24, Z+6	; 0x06
    227a:	8f 70       	andi	r24, 0x0F	; 15
    227c:	80 93 e9 00 	sts	0x00E9, r24
			 *  \return Boolean \c true if current endpoint is has received an OUT packet, \c false otherwise.
			 */
			static inline bool Endpoint_IsOUTReceived(void) ATTR_WARN_UNUSED_RESULT ATTR_ALWAYS_INLINE;
			static inline bool Endpoint_IsOUTReceived(void)
			{
				return ((UEINTX & (1 << RXOUTI)) ? true : false);
    2280:	80 91 e8 00 	lds	r24, 0x00E8

	int16_t ReceivedByte = -1;

	Endpoint_SelectEndpoint(CDCInterfaceInfo->Config.DataOUTEndpoint.Address);

	if (Endpoint_IsOUTReceived())
    2284:	82 ff       	sbrs	r24, 2
    2286:	ec cf       	rjmp	.-40     	; 0x2260 <CDC_Device_ReceiveByte+0x8>
				#if (defined(USB_SERIES_6_AVR) || defined(USB_SERIES_7_AVR))
					return UEBCX;
				#elif defined(USB_SERIES_4_AVR)
					return (((uint16_t)UEBCHX << 8) | UEBCLX);
				#elif defined(USB_SERIES_2_AVR)
					return UEBCLX;
    2288:	80 91 f2 00 	lds	r24, 0x00F2
	{
		if (Endpoint_BytesInEndpoint())
    228c:	88 23       	and	r24, r24
    228e:	21 f0       	breq	.+8      	; 0x2298 <CDC_Device_ReceiveByte+0x40>
			 *  \return Next byte in the currently selected endpoint's FIFO buffer.
			 */
			static inline uint8_t Endpoint_Read_8(void) ATTR_WARN_UNUSED_RESULT ATTR_ALWAYS_INLINE;
			static inline uint8_t Endpoint_Read_8(void)
			{
				return UEDATX;
    2290:	20 91 f1 00 	lds	r18, 0x00F1
		  ReceivedByte = Endpoint_Read_8();
    2294:	30 e0       	ldi	r19, 0x00	; 0
    2296:	02 c0       	rjmp	.+4      	; 0x229c <CDC_Device_ReceiveByte+0x44>
int16_t CDC_Device_ReceiveByte(USB_ClassInfo_CDC_Device_t* const CDCInterfaceInfo)
{
	if ((USB_DeviceState != DEVICE_STATE_Configured) || !(CDCInterfaceInfo->State.LineEncoding.BaudRateBPS))
	  return -1;

	int16_t ReceivedByte = -1;
    2298:	2f ef       	ldi	r18, 0xFF	; 255
    229a:	3f ef       	ldi	r19, 0xFF	; 255
				#if (defined(USB_SERIES_6_AVR) || defined(USB_SERIES_7_AVR))
					return UEBCX;
				#elif defined(USB_SERIES_4_AVR)
					return (((uint16_t)UEBCHX << 8) | UEBCLX);
				#elif defined(USB_SERIES_2_AVR)
					return UEBCLX;
    229c:	80 91 f2 00 	lds	r24, 0x00F2
	if (Endpoint_IsOUTReceived())
	{
		if (Endpoint_BytesInEndpoint())
		  ReceivedByte = Endpoint_Read_8();

		if (!(Endpoint_BytesInEndpoint()))
    22a0:	81 11       	cpse	r24, r1
    22a2:	05 c0       	rjmp	.+10     	; 0x22ae <CDC_Device_ReceiveByte+0x56>
			 */
			static inline void Endpoint_ClearOUT(void) ATTR_ALWAYS_INLINE;
			static inline void Endpoint_ClearOUT(void)
			{
				#if !defined(CONTROL_ONLY_DEVICE)
					UEINTX &= ~((1 << RXOUTI) | (1 << FIFOCON));
    22a4:	80 91 e8 00 	lds	r24, 0x00E8
    22a8:	8b 77       	andi	r24, 0x7B	; 123
    22aa:	80 93 e8 00 	sts	0x00E8, r24
		  Endpoint_ClearOUT();
	}

	return ReceivedByte;
}
    22ae:	c9 01       	movw	r24, r18
    22b0:	08 95       	ret

000022b2 <CDC_Device_Event_Stub>:
	return ReceivedByte;
}
#endif

void CDC_Device_Event_Stub(void)
{
    22b2:	08 95       	ret

000022b4 <CDC_Device_ProcessControlRequest>:
#define  __INCLUDE_FROM_CDC_DRIVER
#define  __INCLUDE_FROM_CDC_DEVICE_C
#include "CDCClassDevice.h"

void CDC_Device_ProcessControlRequest(USB_ClassInfo_CDC_Device_t* const CDCInterfaceInfo)
{
    22b4:	cf 93       	push	r28
    22b6:	df 93       	push	r29
    22b8:	ec 01       	movw	r28, r24
			 *  \return Boolean \c true if the selected endpoint has received a SETUP packet, \c false otherwise.
			 */
			static inline bool Endpoint_IsSETUPReceived(void) ATTR_WARN_UNUSED_RESULT ATTR_ALWAYS_INLINE;
			static inline bool Endpoint_IsSETUPReceived(void)
			{
				return ((UEINTX & (1 << RXSTPI)) ? true : false);
    22ba:	80 91 e8 00 	lds	r24, 0x00E8
	if (!(Endpoint_IsSETUPReceived()))
    22be:	83 ff       	sbrs	r24, 3
    22c0:	a7 c0       	rjmp	.+334    	; 0x2410 <CDC_Device_ProcessControlRequest+0x15c>
	  return;

	if (USB_ControlRequest.wIndex != CDCInterfaceInfo->Config.ControlInterfaceNumber)
    22c2:	88 81       	ld	r24, Y
    22c4:	90 e0       	ldi	r25, 0x00	; 0
    22c6:	20 91 f8 01 	lds	r18, 0x01F8
    22ca:	30 91 f9 01 	lds	r19, 0x01F9
    22ce:	28 17       	cp	r18, r24
    22d0:	39 07       	cpc	r19, r25
    22d2:	09 f0       	breq	.+2      	; 0x22d6 <CDC_Device_ProcessControlRequest+0x22>
    22d4:	9d c0       	rjmp	.+314    	; 0x2410 <CDC_Device_ProcessControlRequest+0x15c>
	  return;

	switch (USB_ControlRequest.bRequest)
    22d6:	80 91 f5 01 	lds	r24, 0x01F5
    22da:	81 32       	cpi	r24, 0x21	; 33
    22dc:	61 f0       	breq	.+24     	; 0x22f6 <CDC_Device_ProcessControlRequest+0x42>
    22de:	20 f4       	brcc	.+8      	; 0x22e8 <CDC_Device_ProcessControlRequest+0x34>
    22e0:	80 32       	cpi	r24, 0x20	; 32
    22e2:	09 f0       	breq	.+2      	; 0x22e6 <CDC_Device_ProcessControlRequest+0x32>
    22e4:	95 c0       	rjmp	.+298    	; 0x2410 <CDC_Device_ProcessControlRequest+0x15c>
    22e6:	3d c0       	rjmp	.+122    	; 0x2362 <CDC_Device_ProcessControlRequest+0xae>
    22e8:	82 32       	cpi	r24, 0x22	; 34
    22ea:	09 f4       	brne	.+2      	; 0x22ee <CDC_Device_ProcessControlRequest+0x3a>
    22ec:	6d c0       	rjmp	.+218    	; 0x23c8 <CDC_Device_ProcessControlRequest+0x114>
    22ee:	83 32       	cpi	r24, 0x23	; 35
    22f0:	09 f0       	breq	.+2      	; 0x22f4 <CDC_Device_ProcessControlRequest+0x40>
    22f2:	8e c0       	rjmp	.+284    	; 0x2410 <CDC_Device_ProcessControlRequest+0x15c>
    22f4:	7d c0       	rjmp	.+250    	; 0x23f0 <CDC_Device_ProcessControlRequest+0x13c>
	{
		case CDC_REQ_GetLineEncoding:
			if (USB_ControlRequest.bmRequestType == (REQDIR_DEVICETOHOST | REQTYPE_CLASS | REQREC_INTERFACE))
    22f6:	80 91 f4 01 	lds	r24, 0x01F4
    22fa:	81 3a       	cpi	r24, 0xA1	; 161
    22fc:	09 f0       	breq	.+2      	; 0x2300 <CDC_Device_ProcessControlRequest+0x4c>
    22fe:	88 c0       	rjmp	.+272    	; 0x2410 <CDC_Device_ProcessControlRequest+0x15c>
			 *  \note This is not applicable for non CONTROL type endpoints.
			 */
			static inline void Endpoint_ClearSETUP(void) ATTR_ALWAYS_INLINE;
			static inline void Endpoint_ClearSETUP(void)
			{
				UEINTX &= ~(1 << RXSTPI);
    2300:	80 91 e8 00 	lds	r24, 0x00E8
    2304:	87 7f       	andi	r24, 0xF7	; 247
    2306:	80 93 e8 00 	sts	0x00E8, r24
			 *  \return Boolean \c true if the current endpoint is ready for an IN packet, \c false otherwise.
			 */
			static inline bool Endpoint_IsINReady(void) ATTR_WARN_UNUSED_RESULT ATTR_ALWAYS_INLINE;
			static inline bool Endpoint_IsINReady(void)
			{
				return ((UEINTX & (1 << TXINI)) ? true : false);
    230a:	80 91 e8 00 	lds	r24, 0x00E8
			{
				Endpoint_ClearSETUP();

				while (!(Endpoint_IsINReady()));
    230e:	80 ff       	sbrs	r24, 0
    2310:	fc cf       	rjmp	.-8      	; 0x230a <CDC_Device_ProcessControlRequest+0x56>

				Endpoint_Write_32_LE(CDCInterfaceInfo->State.LineEncoding.BaudRateBPS);
    2312:	4c 89       	ldd	r20, Y+20	; 0x14
    2314:	5d 89       	ldd	r21, Y+21	; 0x15
    2316:	6e 89       	ldd	r22, Y+22	; 0x16
    2318:	7f 89       	ldd	r23, Y+23	; 0x17
			 *  \param[in] Data  Data to write to the currently selected endpoint's FIFO buffer.
			 */
			static inline void Endpoint_Write_32_LE(const uint32_t Data) ATTR_ALWAYS_INLINE;
			static inline void Endpoint_Write_32_LE(const uint32_t Data)
			{
				UEDATX = (Data &  0xFF);
    231a:	40 93 f1 00 	sts	0x00F1, r20
				UEDATX = (Data >> 8);
    231e:	bb 27       	eor	r27, r27
    2320:	a7 2f       	mov	r26, r23
    2322:	96 2f       	mov	r25, r22
    2324:	85 2f       	mov	r24, r21
    2326:	80 93 f1 00 	sts	0x00F1, r24
				UEDATX = (Data >> 16);
    232a:	cb 01       	movw	r24, r22
    232c:	aa 27       	eor	r26, r26
    232e:	bb 27       	eor	r27, r27
    2330:	80 93 f1 00 	sts	0x00F1, r24
				UEDATX = (Data >> 24);
    2334:	47 2f       	mov	r20, r23
    2336:	55 27       	eor	r21, r21
    2338:	66 27       	eor	r22, r22
    233a:	77 27       	eor	r23, r23
    233c:	40 93 f1 00 	sts	0x00F1, r20
				Endpoint_Write_8(CDCInterfaceInfo->State.LineEncoding.CharFormat);
    2340:	88 8d       	ldd	r24, Y+24	; 0x18
			 *  \param[in] Data  Data to write into the the currently selected endpoint's FIFO buffer.
			 */
			static inline void Endpoint_Write_8(const uint8_t Data) ATTR_ALWAYS_INLINE;
			static inline void Endpoint_Write_8(const uint8_t Data)
			{
				UEDATX = Data;
    2342:	80 93 f1 00 	sts	0x00F1, r24
				Endpoint_Write_8(CDCInterfaceInfo->State.LineEncoding.ParityType);
    2346:	89 8d       	ldd	r24, Y+25	; 0x19
    2348:	80 93 f1 00 	sts	0x00F1, r24
				Endpoint_Write_8(CDCInterfaceInfo->State.LineEncoding.DataBits);
    234c:	8a 8d       	ldd	r24, Y+26	; 0x1a
    234e:	80 93 f1 00 	sts	0x00F1, r24
			 */
			static inline void Endpoint_ClearIN(void) ATTR_ALWAYS_INLINE;
			static inline void Endpoint_ClearIN(void)
			{
				#if !defined(CONTROL_ONLY_DEVICE)
					UEINTX &= ~((1 << TXINI) | (1 << FIFOCON));
    2352:	80 91 e8 00 	lds	r24, 0x00E8
    2356:	8e 77       	andi	r24, 0x7E	; 126
    2358:	80 93 e8 00 	sts	0x00E8, r24
				EVENT_CDC_Device_BreakSent(CDCInterfaceInfo, (uint8_t)USB_ControlRequest.wValue);
			}

			break;
	}
}
    235c:	df 91       	pop	r29
    235e:	cf 91       	pop	r28
				Endpoint_Write_8(CDCInterfaceInfo->State.LineEncoding.CharFormat);
				Endpoint_Write_8(CDCInterfaceInfo->State.LineEncoding.ParityType);
				Endpoint_Write_8(CDCInterfaceInfo->State.LineEncoding.DataBits);

				Endpoint_ClearIN();
				Endpoint_ClearStatusStage();
    2360:	e3 cb       	rjmp	.-2106   	; 0x1b28 <Endpoint_ClearStatusStage>
    2362:	80 91 f4 01 	lds	r24, 0x01F4
			}

			break;
		case CDC_REQ_SetLineEncoding:
			if (USB_ControlRequest.bmRequestType == (REQDIR_HOSTTODEVICE | REQTYPE_CLASS | REQREC_INTERFACE))
    2366:	81 32       	cpi	r24, 0x21	; 33
    2368:	09 f0       	breq	.+2      	; 0x236c <CDC_Device_ProcessControlRequest+0xb8>
    236a:	52 c0       	rjmp	.+164    	; 0x2410 <CDC_Device_ProcessControlRequest+0x15c>
    236c:	80 91 e8 00 	lds	r24, 0x00E8
			 *  \note This is not applicable for non CONTROL type endpoints.
			 */
			static inline void Endpoint_ClearSETUP(void) ATTR_ALWAYS_INLINE;
			static inline void Endpoint_ClearSETUP(void)
			{
				UEINTX &= ~(1 << RXSTPI);
    2370:	87 7f       	andi	r24, 0xF7	; 247
    2372:	80 93 e8 00 	sts	0x00E8, r24
    2376:	05 c0       	rjmp	.+10     	; 0x2382 <CDC_Device_ProcessControlRequest+0xce>
    2378:	80 91 f3 01 	lds	r24, 0x01F3
			{
				Endpoint_ClearSETUP();

				while (!(Endpoint_IsOUTReceived()))
				{
					if (USB_DeviceState == DEVICE_STATE_Unattached)
    237c:	88 23       	and	r24, r24
    237e:	09 f4       	brne	.+2      	; 0x2382 <CDC_Device_ProcessControlRequest+0xce>
    2380:	47 c0       	rjmp	.+142    	; 0x2410 <CDC_Device_ProcessControlRequest+0x15c>
    2382:	80 91 e8 00 	lds	r24, 0x00E8
			 *  \return Boolean \c true if current endpoint is has received an OUT packet, \c false otherwise.
			 */
			static inline bool Endpoint_IsOUTReceived(void) ATTR_WARN_UNUSED_RESULT ATTR_ALWAYS_INLINE;
			static inline bool Endpoint_IsOUTReceived(void)
			{
				return ((UEINTX & (1 << RXOUTI)) ? true : false);
    2386:	82 ff       	sbrs	r24, 2
		case CDC_REQ_SetLineEncoding:
			if (USB_ControlRequest.bmRequestType == (REQDIR_HOSTTODEVICE | REQTYPE_CLASS | REQREC_INTERFACE))
			{
				Endpoint_ClearSETUP();

				while (!(Endpoint_IsOUTReceived()))
    2388:	f7 cf       	rjmp	.-18     	; 0x2378 <CDC_Device_ProcessControlRequest+0xc4>
    238a:	30 91 f1 00 	lds	r19, 0x00F1
				{
					uint32_t Value;
					uint8_t  Bytes[4];
				} Data;

				Data.Bytes[0] = UEDATX;
    238e:	20 91 f1 00 	lds	r18, 0x00F1
				Data.Bytes[1] = UEDATX;
    2392:	90 91 f1 00 	lds	r25, 0x00F1
				Data.Bytes[2] = UEDATX;
    2396:	80 91 f1 00 	lds	r24, 0x00F1
				Data.Bytes[3] = UEDATX;
    239a:	3c 8b       	std	Y+20, r19	; 0x14
				{
					if (USB_DeviceState == DEVICE_STATE_Unattached)
					  return;
				}

				CDCInterfaceInfo->State.LineEncoding.BaudRateBPS = Endpoint_Read_32_LE();
    239c:	2d 8b       	std	Y+21, r18	; 0x15
    239e:	9e 8b       	std	Y+22, r25	; 0x16
    23a0:	8f 8b       	std	Y+23, r24	; 0x17
    23a2:	80 91 f1 00 	lds	r24, 0x00F1
			 *  \return Next byte in the currently selected endpoint's FIFO buffer.
			 */
			static inline uint8_t Endpoint_Read_8(void) ATTR_WARN_UNUSED_RESULT ATTR_ALWAYS_INLINE;
			static inline uint8_t Endpoint_Read_8(void)
			{
				return UEDATX;
    23a6:	88 8f       	std	Y+24, r24	; 0x18
				CDCInterfaceInfo->State.LineEncoding.CharFormat  = Endpoint_Read_8();
    23a8:	80 91 f1 00 	lds	r24, 0x00F1
    23ac:	89 8f       	std	Y+25, r24	; 0x19
				CDCInterfaceInfo->State.LineEncoding.ParityType  = Endpoint_Read_8();
    23ae:	80 91 f1 00 	lds	r24, 0x00F1
    23b2:	8a 8f       	std	Y+26, r24	; 0x1a
				CDCInterfaceInfo->State.LineEncoding.DataBits    = Endpoint_Read_8();
    23b4:	80 91 e8 00 	lds	r24, 0x00E8
			 */
			static inline void Endpoint_ClearOUT(void) ATTR_ALWAYS_INLINE;
			static inline void Endpoint_ClearOUT(void)
			{
				#if !defined(CONTROL_ONLY_DEVICE)
					UEINTX &= ~((1 << RXOUTI) | (1 << FIFOCON));
    23b8:	8b 77       	andi	r24, 0x7B	; 123
    23ba:	80 93 e8 00 	sts	0x00E8, r24
    23be:	b4 db       	rcall	.-2200   	; 0x1b28 <Endpoint_ClearStatusStage>

				Endpoint_ClearOUT();
				Endpoint_ClearStatusStage();
    23c0:	ce 01       	movw	r24, r28
    23c2:	df 91       	pop	r29

				EVENT_CDC_Device_LineEncodingChanged(CDCInterfaceInfo);
    23c4:	cf 91       	pop	r28
				EVENT_CDC_Device_BreakSent(CDCInterfaceInfo, (uint8_t)USB_ControlRequest.wValue);
			}

			break;
	}
}
    23c6:	6f c9       	rjmp	.-3362   	; 0x16a6 <EVENT_CDC_Device_LineEncodingChanged>
    23c8:	80 91 f4 01 	lds	r24, 0x01F4
				CDCInterfaceInfo->State.LineEncoding.DataBits    = Endpoint_Read_8();

				Endpoint_ClearOUT();
				Endpoint_ClearStatusStage();

				EVENT_CDC_Device_LineEncodingChanged(CDCInterfaceInfo);
    23cc:	81 32       	cpi	r24, 0x21	; 33
			}

			break;
		case CDC_REQ_SetControlLineState:
			if (USB_ControlRequest.bmRequestType == (REQDIR_HOSTTODEVICE | REQTYPE_CLASS | REQREC_INTERFACE))
    23ce:	01 f5       	brne	.+64     	; 0x2410 <CDC_Device_ProcessControlRequest+0x15c>
    23d0:	80 91 e8 00 	lds	r24, 0x00E8
    23d4:	87 7f       	andi	r24, 0xF7	; 247
			 *  \note This is not applicable for non CONTROL type endpoints.
			 */
			static inline void Endpoint_ClearSETUP(void) ATTR_ALWAYS_INLINE;
			static inline void Endpoint_ClearSETUP(void)
			{
				UEINTX &= ~(1 << RXSTPI);
    23d6:	80 93 e8 00 	sts	0x00E8, r24
    23da:	a6 db       	rcall	.-2228   	; 0x1b28 <Endpoint_ClearStatusStage>
    23dc:	80 91 f6 01 	lds	r24, 0x01F6
			{
				Endpoint_ClearSETUP();
				Endpoint_ClearStatusStage();
    23e0:	90 91 f7 01 	lds	r25, 0x01F7

				CDCInterfaceInfo->State.ControlLineStates.HostToDevice = USB_ControlRequest.wValue;
    23e4:	99 8b       	std	Y+17, r25	; 0x11
    23e6:	88 8b       	std	Y+16, r24	; 0x10
    23e8:	ce 01       	movw	r24, r28
    23ea:	df 91       	pop	r29
    23ec:	cf 91       	pop	r28
    23ee:	2e c9       	rjmp	.-3492   	; 0x164c <EVENT_CDC_Device_ControLineStateChanged>

				EVENT_CDC_Device_ControLineStateChanged(CDCInterfaceInfo);
    23f0:	80 91 f4 01 	lds	r24, 0x01F4
				EVENT_CDC_Device_BreakSent(CDCInterfaceInfo, (uint8_t)USB_ControlRequest.wValue);
			}

			break;
	}
}
    23f4:	81 32       	cpi	r24, 0x21	; 33
				Endpoint_ClearSETUP();
				Endpoint_ClearStatusStage();

				CDCInterfaceInfo->State.ControlLineStates.HostToDevice = USB_ControlRequest.wValue;

				EVENT_CDC_Device_ControLineStateChanged(CDCInterfaceInfo);
    23f6:	61 f4       	brne	.+24     	; 0x2410 <CDC_Device_ProcessControlRequest+0x15c>
    23f8:	80 91 e8 00 	lds	r24, 0x00E8
			}

			break;
		case CDC_REQ_SendBreak:
			if (USB_ControlRequest.bmRequestType == (REQDIR_HOSTTODEVICE | REQTYPE_CLASS | REQREC_INTERFACE))
    23fc:	87 7f       	andi	r24, 0xF7	; 247
    23fe:	80 93 e8 00 	sts	0x00E8, r24
    2402:	92 db       	rcall	.-2268   	; 0x1b28 <Endpoint_ClearStatusStage>
    2404:	60 91 f6 01 	lds	r22, 0x01F6
    2408:	ce 01       	movw	r24, r28
    240a:	df 91       	pop	r29
			{
				Endpoint_ClearSETUP();
				Endpoint_ClearStatusStage();
    240c:	cf 91       	pop	r28
    240e:	51 cf       	rjmp	.-350    	; 0x22b2 <CDC_Device_Event_Stub>

				EVENT_CDC_Device_BreakSent(CDCInterfaceInfo, (uint8_t)USB_ControlRequest.wValue);
    2410:	df 91       	pop	r29
    2412:	cf 91       	pop	r28
    2414:	08 95       	ret

00002416 <HID_Device_ProcessControlRequest>:
			}

			break;
	}
}
    2416:	6f 92       	push	r6
    2418:	7f 92       	push	r7
			if (USB_ControlRequest.bmRequestType == (REQDIR_HOSTTODEVICE | REQTYPE_CLASS | REQREC_INTERFACE))
			{
				Endpoint_ClearSETUP();
				Endpoint_ClearStatusStage();

				EVENT_CDC_Device_BreakSent(CDCInterfaceInfo, (uint8_t)USB_ControlRequest.wValue);
    241a:	8f 92       	push	r8
    241c:	9f 92       	push	r9
			}

			break;
	}
}
    241e:	af 92       	push	r10
    2420:	bf 92       	push	r11
    2422:	cf 92       	push	r12
#define  __INCLUDE_FROM_HID_DRIVER
#define  __INCLUDE_FROM_HID_DEVICE_C
#include "HIDClassDevice.h"

void HID_Device_ProcessControlRequest(USB_ClassInfo_HID_Device_t* const HIDInterfaceInfo)
{
    2424:	df 92       	push	r13
    2426:	ef 92       	push	r14
    2428:	ff 92       	push	r15
    242a:	0f 93       	push	r16
    242c:	1f 93       	push	r17
    242e:	cf 93       	push	r28
    2430:	df 93       	push	r29
    2432:	00 d0       	rcall	.+0      	; 0x2434 <HID_Device_ProcessControlRequest+0x1e>
    2434:	1f 92       	push	r1
    2436:	cd b7       	in	r28, 0x3d	; 61
    2438:	de b7       	in	r29, 0x3e	; 62
    243a:	7c 01       	movw	r14, r24
				Endpoint_ClearStatusStage();
			}

			break;
	}
}
    243c:	ad b6       	in	r10, 0x3d	; 61
    243e:	be b6       	in	r11, 0x3e	; 62
			 *  \return Boolean \c true if the selected endpoint has received a SETUP packet, \c false otherwise.
			 */
			static inline bool Endpoint_IsSETUPReceived(void) ATTR_WARN_UNUSED_RESULT ATTR_ALWAYS_INLINE;
			static inline bool Endpoint_IsSETUPReceived(void)
			{
				return ((UEINTX & (1 << RXSTPI)) ? true : false);
    2440:	80 91 e8 00 	lds	r24, 0x00E8
#define  __INCLUDE_FROM_HID_DEVICE_C
#include "HIDClassDevice.h"

void HID_Device_ProcessControlRequest(USB_ClassInfo_HID_Device_t* const HIDInterfaceInfo)
{
	if (!(Endpoint_IsSETUPReceived()))
    2444:	83 ff       	sbrs	r24, 3
    2446:	07 c1       	rjmp	.+526    	; 0x2656 <HID_Device_ProcessControlRequest+0x240>
	  return;

	if (USB_ControlRequest.wIndex != HIDInterfaceInfo->Config.InterfaceNumber)
    2448:	f7 01       	movw	r30, r14
    244a:	80 81       	ld	r24, Z
    244c:	90 e0       	ldi	r25, 0x00	; 0
    244e:	20 91 f8 01 	lds	r18, 0x01F8
    2452:	30 91 f9 01 	lds	r19, 0x01F9
    2456:	28 17       	cp	r18, r24
    2458:	39 07       	cpc	r19, r25
    245a:	09 f0       	breq	.+2      	; 0x245e <HID_Device_ProcessControlRequest+0x48>
    245c:	fc c0       	rjmp	.+504    	; 0x2656 <HID_Device_ProcessControlRequest+0x240>
	  return;

	switch (USB_ControlRequest.bRequest)
    245e:	80 91 f5 01 	lds	r24, 0x01F5
    2462:	83 30       	cpi	r24, 0x03	; 3
    2464:	09 f4       	brne	.+2      	; 0x2468 <HID_Device_ProcessControlRequest+0x52>
    2466:	9e c0       	rjmp	.+316    	; 0x25a4 <HID_Device_ProcessControlRequest+0x18e>
    2468:	30 f4       	brcc	.+12     	; 0x2476 <HID_Device_ProcessControlRequest+0x60>
    246a:	81 30       	cpi	r24, 0x01	; 1
    246c:	71 f0       	breq	.+28     	; 0x248a <HID_Device_ProcessControlRequest+0x74>
    246e:	82 30       	cpi	r24, 0x02	; 2
    2470:	09 f0       	breq	.+2      	; 0x2474 <HID_Device_ProcessControlRequest+0x5e>
    2472:	f1 c0       	rjmp	.+482    	; 0x2656 <HID_Device_ProcessControlRequest+0x240>
    2474:	d4 c0       	rjmp	.+424    	; 0x261e <HID_Device_ProcessControlRequest+0x208>
    2476:	8a 30       	cpi	r24, 0x0A	; 10
    2478:	09 f4       	brne	.+2      	; 0x247c <HID_Device_ProcessControlRequest+0x66>
    247a:	b9 c0       	rjmp	.+370    	; 0x25ee <HID_Device_ProcessControlRequest+0x1d8>
    247c:	8b 30       	cpi	r24, 0x0B	; 11
    247e:	09 f4       	brne	.+2      	; 0x2482 <HID_Device_ProcessControlRequest+0x6c>
    2480:	a2 c0       	rjmp	.+324    	; 0x25c6 <HID_Device_ProcessControlRequest+0x1b0>
    2482:	89 30       	cpi	r24, 0x09	; 9
    2484:	09 f0       	breq	.+2      	; 0x2488 <HID_Device_ProcessControlRequest+0x72>
    2486:	e7 c0       	rjmp	.+462    	; 0x2656 <HID_Device_ProcessControlRequest+0x240>
    2488:	4c c0       	rjmp	.+152    	; 0x2522 <HID_Device_ProcessControlRequest+0x10c>
	{
		case HID_REQ_GetReport:
			if (USB_ControlRequest.bmRequestType == (REQDIR_DEVICETOHOST | REQTYPE_CLASS | REQREC_INTERFACE))
    248a:	80 91 f4 01 	lds	r24, 0x01F4
    248e:	81 3a       	cpi	r24, 0xA1	; 161
    2490:	09 f0       	breq	.+2      	; 0x2494 <HID_Device_ProcessControlRequest+0x7e>
    2492:	e1 c0       	rjmp	.+450    	; 0x2656 <HID_Device_ProcessControlRequest+0x240>
    2494:	8d b6       	in	r8, 0x3d	; 61
    2496:	9e b6       	in	r9, 0x3e	; 62
			{
				uint16_t ReportSize = 0;
    2498:	1a 82       	std	Y+2, r1	; 0x02
    249a:	19 82       	std	Y+1, r1	; 0x01
				uint8_t  ReportID   = (USB_ControlRequest.wValue & 0xFF);
    249c:	80 91 f6 01 	lds	r24, 0x01F6
    24a0:	10 91 f7 01 	lds	r17, 0x01F7
    24a4:	8b 83       	std	Y+3, r24	; 0x03
				uint8_t  ReportType = (USB_ControlRequest.wValue >> 8) - 1;
				uint8_t  ReportData[HIDInterfaceInfo->Config.PrevReportINBufferSize];
    24a6:	f7 01       	movw	r30, r14
    24a8:	40 85       	ldd	r20, Z+8	; 0x08
    24aa:	8d b7       	in	r24, 0x3d	; 61
    24ac:	9e b7       	in	r25, 0x3e	; 62
    24ae:	84 1b       	sub	r24, r20
    24b0:	91 09       	sbc	r25, r1
    24b2:	0f b6       	in	r0, 0x3f	; 63
    24b4:	f8 94       	cli
    24b6:	9e bf       	out	0x3e, r25	; 62
    24b8:	0f be       	out	0x3f, r0	; 63
    24ba:	8d bf       	out	0x3d, r24	; 61
    24bc:	cd b6       	in	r12, 0x3d	; 61
    24be:	de b6       	in	r13, 0x3e	; 62
    24c0:	ef ef       	ldi	r30, 0xFF	; 255
    24c2:	ce 1a       	sub	r12, r30
    24c4:	de 0a       	sbc	r13, r30

				memset(ReportData, 0, sizeof(ReportData));
    24c6:	36 01       	movw	r6, r12
    24c8:	50 e0       	ldi	r21, 0x00	; 0
    24ca:	60 e0       	ldi	r22, 0x00	; 0
    24cc:	70 e0       	ldi	r23, 0x00	; 0
    24ce:	c6 01       	movw	r24, r12
    24d0:	ea d1       	rcall	.+980    	; 0x28a6 <memset>
    24d2:	41 2f       	mov	r20, r17
		case HID_REQ_GetReport:
			if (USB_ControlRequest.bmRequestType == (REQDIR_DEVICETOHOST | REQTYPE_CLASS | REQREC_INTERFACE))
			{
				uint16_t ReportSize = 0;
				uint8_t  ReportID   = (USB_ControlRequest.wValue & 0xFF);
				uint8_t  ReportType = (USB_ControlRequest.wValue >> 8) - 1;
    24d4:	41 50       	subi	r20, 0x01	; 1
    24d6:	8e 01       	movw	r16, r28
				uint8_t  ReportData[HIDInterfaceInfo->Config.PrevReportINBufferSize];

				memset(ReportData, 0, sizeof(ReportData));

				CALLBACK_HID_Device_CreateHIDReport(HIDInterfaceInfo, &ReportID, ReportType, ReportData, &ReportSize);
    24d8:	0f 5f       	subi	r16, 0xFF	; 255
    24da:	1f 4f       	sbci	r17, 0xFF	; 255
    24dc:	96 01       	movw	r18, r12
    24de:	be 01       	movw	r22, r28
    24e0:	6d 5f       	subi	r22, 0xFD	; 253
    24e2:	7f 4f       	sbci	r23, 0xFF	; 255
    24e4:	c7 01       	movw	r24, r14
    24e6:	0e 94 65 04 	call	0x8ca	; 0x8ca <CALLBACK_HID_Device_CreateHIDReport>
    24ea:	f7 01       	movw	r30, r14

				if (HIDInterfaceInfo->Config.PrevReportINBuffer != NULL)
    24ec:	26 81       	ldd	r18, Z+6	; 0x06
    24ee:	37 81       	ldd	r19, Z+7	; 0x07
    24f0:	21 15       	cp	r18, r1
    24f2:	31 05       	cpc	r19, r1
    24f4:	29 f0       	breq	.+10     	; 0x2500 <HID_Device_ProcessControlRequest+0xea>
    24f6:	40 85       	ldd	r20, Z+8	; 0x08
				{
					memcpy(HIDInterfaceInfo->Config.PrevReportINBuffer, ReportData,
    24f8:	50 e0       	ldi	r21, 0x00	; 0
    24fa:	b6 01       	movw	r22, r12
    24fc:	c9 01       	movw	r24, r18
    24fe:	ca d1       	rcall	.+916    	; 0x2894 <memcpy>
    2500:	10 92 e9 00 	sts	0x00E9, r1
			 */
			static inline void Endpoint_SelectEndpoint(const uint8_t Address) ATTR_ALWAYS_INLINE;
			static inline void Endpoint_SelectEndpoint(const uint8_t Address)
			{
				#if !defined(CONTROL_ONLY_DEVICE)
					UENUM = (Address & ENDPOINT_EPNUM_MASK);
    2504:	80 91 e8 00 	lds	r24, 0x00E8
			 *  \note This is not applicable for non CONTROL type endpoints.
			 */
			static inline void Endpoint_ClearSETUP(void) ATTR_ALWAYS_INLINE;
			static inline void Endpoint_ClearSETUP(void)
			{
				UEINTX &= ~(1 << RXSTPI);
    2508:	87 7f       	andi	r24, 0xF7	; 247
    250a:	80 93 e8 00 	sts	0x00E8, r24
    250e:	69 81       	ldd	r22, Y+1	; 0x01
    2510:	7a 81       	ldd	r23, Y+2	; 0x02
				}

				Endpoint_SelectEndpoint(ENDPOINT_CONTROLEP);

				Endpoint_ClearSETUP();
				Endpoint_Write_Control_Stream_LE(ReportData, ReportSize);
    2512:	c3 01       	movw	r24, r6
    2514:	93 d9       	rcall	.-3290   	; 0x183c <Endpoint_Write_Control_Stream_LE>
    2516:	80 91 e8 00 	lds	r24, 0x00E8
    251a:	8b 77       	andi	r24, 0x7B	; 123
			 */
			static inline void Endpoint_ClearOUT(void) ATTR_ALWAYS_INLINE;
			static inline void Endpoint_ClearOUT(void)
			{
				#if !defined(CONTROL_ONLY_DEVICE)
					UEINTX &= ~((1 << RXOUTI) | (1 << FIFOCON));
    251c:	80 93 e8 00 	sts	0x00E8, r24
    2520:	39 c0       	rjmp	.+114    	; 0x2594 <HID_Device_ProcessControlRequest+0x17e>
    2522:	80 91 f4 01 	lds	r24, 0x01F4
    2526:	81 32       	cpi	r24, 0x21	; 33
				Endpoint_ClearOUT();
			}

			break;
		case HID_REQ_SetReport:
			if (USB_ControlRequest.bmRequestType == (REQDIR_HOSTTODEVICE | REQTYPE_CLASS | REQREC_INTERFACE))
    2528:	09 f0       	breq	.+2      	; 0x252c <HID_Device_ProcessControlRequest+0x116>
    252a:	95 c0       	rjmp	.+298    	; 0x2656 <HID_Device_ProcessControlRequest+0x240>
    252c:	8d b6       	in	r8, 0x3d	; 61
    252e:	9e b6       	in	r9, 0x3e	; 62
    2530:	00 91 fa 01 	lds	r16, 0x01FA
    2534:	10 91 fb 01 	lds	r17, 0x01FB
			{
				uint16_t ReportSize = USB_ControlRequest.wLength;
    2538:	70 90 f6 01 	lds	r7, 0x01F6
    253c:	60 90 f7 01 	lds	r6, 0x01F7
				uint8_t  ReportID   = (USB_ControlRequest.wValue & 0xFF);
    2540:	8d b7       	in	r24, 0x3d	; 61
    2542:	9e b7       	in	r25, 0x3e	; 62
    2544:	80 1b       	sub	r24, r16
				uint8_t  ReportType = (USB_ControlRequest.wValue >> 8) - 1;
				uint8_t  ReportData[ReportSize];
    2546:	91 0b       	sbc	r25, r17
    2548:	0f b6       	in	r0, 0x3f	; 63
    254a:	f8 94       	cli
    254c:	9e bf       	out	0x3e, r25	; 62
    254e:	0f be       	out	0x3f, r0	; 63
    2550:	8d bf       	out	0x3d, r24	; 61
    2552:	cd b6       	in	r12, 0x3d	; 61
    2554:	de b6       	in	r13, 0x3e	; 62
    2556:	ef ef       	ldi	r30, 0xFF	; 255
    2558:	ce 1a       	sub	r12, r30
    255a:	de 0a       	sbc	r13, r30
    255c:	80 91 e8 00 	lds	r24, 0x00E8
    2560:	87 7f       	andi	r24, 0xF7	; 247
			 *  \note This is not applicable for non CONTROL type endpoints.
			 */
			static inline void Endpoint_ClearSETUP(void) ATTR_ALWAYS_INLINE;
			static inline void Endpoint_ClearSETUP(void)
			{
				UEINTX &= ~(1 << RXSTPI);
    2562:	80 93 e8 00 	sts	0x00E8, r24
    2566:	b8 01       	movw	r22, r16
    2568:	c6 01       	movw	r24, r12
    256a:	c8 d9       	rcall	.-3184   	; 0x18fc <Endpoint_Read_Control_Stream_LE>

				Endpoint_ClearSETUP();
				Endpoint_Read_Control_Stream_LE(ReportData, ReportSize);
    256c:	80 91 e8 00 	lds	r24, 0x00E8
    2570:	8e 77       	andi	r24, 0x7E	; 126
    2572:	80 93 e8 00 	sts	0x00E8, r24
			 */
			static inline void Endpoint_ClearIN(void) ATTR_ALWAYS_INLINE;
			static inline void Endpoint_ClearIN(void)
			{
				#if !defined(CONTROL_ONLY_DEVICE)
					UEINTX &= ~((1 << TXINI) | (1 << FIFOCON));
    2576:	21 e0       	ldi	r18, 0x01	; 1
    2578:	71 10       	cpse	r7, r1
    257a:	01 c0       	rjmp	.+2      	; 0x257e <HID_Device_ProcessControlRequest+0x168>
    257c:	20 e0       	ldi	r18, 0x00	; 0
				Endpoint_ClearIN();

				CALLBACK_HID_Device_ProcessHIDReport(HIDInterfaceInfo, ReportID, ReportType,
    257e:	30 e0       	ldi	r19, 0x00	; 0
    2580:	02 1b       	sub	r16, r18
    2582:	13 0b       	sbc	r17, r19
    2584:	2c 0d       	add	r18, r12
    2586:	3d 1d       	adc	r19, r13
    2588:	46 2d       	mov	r20, r6
    258a:	41 50       	subi	r20, 0x01	; 1
				                                     &ReportData[ReportID ? 1 : 0], ReportSize - (ReportID ? 1 : 0));
    258c:	67 2d       	mov	r22, r7
    258e:	c7 01       	movw	r24, r14
		case HID_REQ_SetReport:
			if (USB_ControlRequest.bmRequestType == (REQDIR_HOSTTODEVICE | REQTYPE_CLASS | REQREC_INTERFACE))
			{
				uint16_t ReportSize = USB_ControlRequest.wLength;
				uint8_t  ReportID   = (USB_ControlRequest.wValue & 0xFF);
				uint8_t  ReportType = (USB_ControlRequest.wValue >> 8) - 1;
    2590:	0e 94 a5 04 	call	0x94a	; 0x94a <CALLBACK_HID_Device_ProcessHIDReport>

				Endpoint_ClearSETUP();
				Endpoint_Read_Control_Stream_LE(ReportData, ReportSize);
				Endpoint_ClearIN();

				CALLBACK_HID_Device_ProcessHIDReport(HIDInterfaceInfo, ReportID, ReportType,
    2594:	88 2d       	mov	r24, r8
    2596:	99 2d       	mov	r25, r9
    2598:	0f b6       	in	r0, 0x3f	; 63
    259a:	f8 94       	cli
    259c:	9e bf       	out	0x3e, r25	; 62
    259e:	0f be       	out	0x3f, r0	; 63
    25a0:	8d bf       	out	0x3d, r24	; 61
    25a2:	59 c0       	rjmp	.+178    	; 0x2656 <HID_Device_ProcessControlRequest+0x240>
    25a4:	80 91 f4 01 	lds	r24, 0x01F4
    25a8:	81 3a       	cpi	r24, 0xA1	; 161
    25aa:	09 f0       	breq	.+2      	; 0x25ae <HID_Device_ProcessControlRequest+0x198>
				                                     &ReportData[ReportID ? 1 : 0], ReportSize - (ReportID ? 1 : 0));
			}

			break;
		case HID_REQ_GetProtocol:
			if (USB_ControlRequest.bmRequestType == (REQDIR_DEVICETOHOST | REQTYPE_CLASS | REQREC_INTERFACE))
    25ac:	54 c0       	rjmp	.+168    	; 0x2656 <HID_Device_ProcessControlRequest+0x240>
    25ae:	80 91 e8 00 	lds	r24, 0x00E8
    25b2:	87 7f       	andi	r24, 0xF7	; 247
    25b4:	80 93 e8 00 	sts	0x00E8, r24
			 *  \note This is not applicable for non CONTROL type endpoints.
			 */
			static inline void Endpoint_ClearSETUP(void) ATTR_ALWAYS_INLINE;
			static inline void Endpoint_ClearSETUP(void)
			{
				UEINTX &= ~(1 << RXSTPI);
    25b8:	80 91 e8 00 	lds	r24, 0x00E8
    25bc:	80 ff       	sbrs	r24, 0
    25be:	fc cf       	rjmp	.-8      	; 0x25b8 <HID_Device_ProcessControlRequest+0x1a2>
			 *  \return Boolean \c true if the current endpoint is ready for an IN packet, \c false otherwise.
			 */
			static inline bool Endpoint_IsINReady(void) ATTR_WARN_UNUSED_RESULT ATTR_ALWAYS_INLINE;
			static inline bool Endpoint_IsINReady(void)
			{
				return ((UEINTX & (1 << TXINI)) ? true : false);
    25c0:	f7 01       	movw	r30, r14
    25c2:	81 85       	ldd	r24, Z+9	; 0x09
			{
				Endpoint_ClearSETUP();
				while (!(Endpoint_IsINReady()));
    25c4:	40 c0       	rjmp	.+128    	; 0x2646 <HID_Device_ProcessControlRequest+0x230>
    25c6:	80 91 f4 01 	lds	r24, 0x01F4
				Endpoint_Write_8(HIDInterfaceInfo->State.UsingReportProtocol);
    25ca:	81 32       	cpi	r24, 0x21	; 33
    25cc:	09 f0       	breq	.+2      	; 0x25d0 <HID_Device_ProcessControlRequest+0x1ba>
				Endpoint_ClearStatusStage();
			}

			break;
		case HID_REQ_SetProtocol:
			if (USB_ControlRequest.bmRequestType == (REQDIR_HOSTTODEVICE | REQTYPE_CLASS | REQREC_INTERFACE))
    25ce:	43 c0       	rjmp	.+134    	; 0x2656 <HID_Device_ProcessControlRequest+0x240>
    25d0:	80 91 e8 00 	lds	r24, 0x00E8
    25d4:	87 7f       	andi	r24, 0xF7	; 247
    25d6:	80 93 e8 00 	sts	0x00E8, r24
			 *  \note This is not applicable for non CONTROL type endpoints.
			 */
			static inline void Endpoint_ClearSETUP(void) ATTR_ALWAYS_INLINE;
			static inline void Endpoint_ClearSETUP(void)
			{
				UEINTX &= ~(1 << RXSTPI);
    25da:	a6 da       	rcall	.-2740   	; 0x1b28 <Endpoint_ClearStatusStage>
    25dc:	90 91 f6 01 	lds	r25, 0x01F6
    25e0:	81 e0       	ldi	r24, 0x01	; 1
			{
				Endpoint_ClearSETUP();
				Endpoint_ClearStatusStage();
    25e2:	91 11       	cpse	r25, r1
    25e4:	01 c0       	rjmp	.+2      	; 0x25e8 <HID_Device_ProcessControlRequest+0x1d2>

				HIDInterfaceInfo->State.UsingReportProtocol = ((USB_ControlRequest.wValue & 0xFF) != 0x00);
    25e6:	80 e0       	ldi	r24, 0x00	; 0
    25e8:	f7 01       	movw	r30, r14
    25ea:	81 87       	std	Z+9, r24	; 0x09
    25ec:	34 c0       	rjmp	.+104    	; 0x2656 <HID_Device_ProcessControlRequest+0x240>
    25ee:	80 91 f4 01 	lds	r24, 0x01F4
    25f2:	81 32       	cpi	r24, 0x21	; 33
    25f4:	81 f5       	brne	.+96     	; 0x2656 <HID_Device_ProcessControlRequest+0x240>
    25f6:	80 91 e8 00 	lds	r24, 0x00E8
			}

			break;
		case HID_REQ_SetIdle:
			if (USB_ControlRequest.bmRequestType == (REQDIR_HOSTTODEVICE | REQTYPE_CLASS | REQREC_INTERFACE))
    25fa:	87 7f       	andi	r24, 0xF7	; 247
    25fc:	80 93 e8 00 	sts	0x00E8, r24
    2600:	93 da       	rcall	.-2778   	; 0x1b28 <Endpoint_ClearStatusStage>
    2602:	80 91 f6 01 	lds	r24, 0x01F6
    2606:	90 91 f7 01 	lds	r25, 0x01F7
			{
				Endpoint_ClearSETUP();
				Endpoint_ClearStatusStage();
    260a:	88 27       	eor	r24, r24
    260c:	36 e0       	ldi	r19, 0x06	; 6

				HIDInterfaceInfo->State.IdleCount = ((USB_ControlRequest.wValue & 0xFF00) >> 6);
    260e:	96 95       	lsr	r25
    2610:	87 95       	ror	r24
    2612:	3a 95       	dec	r19
    2614:	e1 f7       	brne	.-8      	; 0x260e <HID_Device_ProcessControlRequest+0x1f8>
    2616:	f7 01       	movw	r30, r14
    2618:	95 87       	std	Z+13, r25	; 0x0d
    261a:	84 87       	std	Z+12, r24	; 0x0c
    261c:	1c c0       	rjmp	.+56     	; 0x2656 <HID_Device_ProcessControlRequest+0x240>
    261e:	80 91 f4 01 	lds	r24, 0x01F4
    2622:	81 3a       	cpi	r24, 0xA1	; 161
    2624:	c1 f4       	brne	.+48     	; 0x2656 <HID_Device_ProcessControlRequest+0x240>
    2626:	80 91 e8 00 	lds	r24, 0x00E8
			}

			break;
		case HID_REQ_GetIdle:
			if (USB_ControlRequest.bmRequestType == (REQDIR_DEVICETOHOST | REQTYPE_CLASS | REQREC_INTERFACE))
    262a:	87 7f       	andi	r24, 0xF7	; 247
    262c:	80 93 e8 00 	sts	0x00E8, r24
    2630:	80 91 e8 00 	lds	r24, 0x00E8
    2634:	80 ff       	sbrs	r24, 0
    2636:	fc cf       	rjmp	.-8      	; 0x2630 <HID_Device_ProcessControlRequest+0x21a>
    2638:	f7 01       	movw	r30, r14
    263a:	84 85       	ldd	r24, Z+12	; 0x0c
			 *  \return Boolean \c true if the current endpoint is ready for an IN packet, \c false otherwise.
			 */
			static inline bool Endpoint_IsINReady(void) ATTR_WARN_UNUSED_RESULT ATTR_ALWAYS_INLINE;
			static inline bool Endpoint_IsINReady(void)
			{
				return ((UEINTX & (1 << TXINI)) ? true : false);
    263c:	95 85       	ldd	r25, Z+13	; 0x0d
    263e:	96 95       	lsr	r25
			{
				Endpoint_ClearSETUP();
				while (!(Endpoint_IsINReady()));
    2640:	87 95       	ror	r24
    2642:	96 95       	lsr	r25
				Endpoint_Write_8(HIDInterfaceInfo->State.IdleCount >> 2);
    2644:	87 95       	ror	r24
    2646:	80 93 f1 00 	sts	0x00F1, r24
    264a:	80 91 e8 00 	lds	r24, 0x00E8
    264e:	8e 77       	andi	r24, 0x7E	; 126
    2650:	80 93 e8 00 	sts	0x00E8, r24
			 *  \param[in] Data  Data to write into the the currently selected endpoint's FIFO buffer.
			 */
			static inline void Endpoint_Write_8(const uint8_t Data) ATTR_ALWAYS_INLINE;
			static inline void Endpoint_Write_8(const uint8_t Data)
			{
				UEDATX = Data;
    2654:	69 da       	rcall	.-2862   	; 0x1b28 <Endpoint_ClearStatusStage>
			 */
			static inline void Endpoint_ClearIN(void) ATTR_ALWAYS_INLINE;
			static inline void Endpoint_ClearIN(void)
			{
				#if !defined(CONTROL_ONLY_DEVICE)
					UEINTX &= ~((1 << TXINI) | (1 << FIFOCON));
    2656:	0f b6       	in	r0, 0x3f	; 63
    2658:	f8 94       	cli
    265a:	be be       	out	0x3e, r11	; 62
    265c:	0f be       	out	0x3f, r0	; 63
    265e:	ad be       	out	0x3d, r10	; 61
				Endpoint_ClearIN();
				Endpoint_ClearStatusStage();
    2660:	0f 90       	pop	r0
    2662:	0f 90       	pop	r0
			}

			break;
	}
}
    2664:	0f 90       	pop	r0
    2666:	df 91       	pop	r29
    2668:	cf 91       	pop	r28
    266a:	1f 91       	pop	r17
    266c:	0f 91       	pop	r16
    266e:	ff 90       	pop	r15
    2670:	ef 90       	pop	r14
    2672:	df 90       	pop	r13
    2674:	cf 90       	pop	r12
    2676:	bf 90       	pop	r11
    2678:	af 90       	pop	r10
    267a:	9f 90       	pop	r9
    267c:	8f 90       	pop	r8
    267e:	7f 90       	pop	r7
    2680:	6f 90       	pop	r6
    2682:	08 95       	ret

00002684 <HID_Device_ConfigureEndpoints>:

bool HID_Device_ConfigureEndpoints(USB_ClassInfo_HID_Device_t* const HIDInterfaceInfo)
{
    2684:	9c 01       	movw	r18, r24
    2686:	27 5f       	subi	r18, 0xF7	; 247
    2688:	3f 4f       	sbci	r19, 0xFF	; 255
    268a:	f9 01       	movw	r30, r18
    268c:	27 e0       	ldi	r18, 0x07	; 7
    268e:	df 01       	movw	r26, r30
    2690:	1d 92       	st	X+, r1
    2692:	2a 95       	dec	r18
    2694:	e9 f7       	brne	.-6      	; 0x2690 <HID_Device_ConfigureEndpoints+0xc>
	memset(&HIDInterfaceInfo->State, 0x00, sizeof(HIDInterfaceInfo->State));
	HIDInterfaceInfo->State.UsingReportProtocol = true;
    2696:	21 e0       	ldi	r18, 0x01	; 1
    2698:	fc 01       	movw	r30, r24
    269a:	21 87       	std	Z+9, r18	; 0x09
	HIDInterfaceInfo->State.IdleCount           = 500;
    269c:	24 ef       	ldi	r18, 0xF4	; 244
    269e:	31 e0       	ldi	r19, 0x01	; 1
    26a0:	35 87       	std	Z+13, r19	; 0x0d
    26a2:	24 87       	std	Z+12, r18	; 0x0c

	HIDInterfaceInfo->Config.ReportINEndpoint.Type = EP_TYPE_INTERRUPT;
    26a4:	23 e0       	ldi	r18, 0x03	; 3
    26a6:	24 83       	std	Z+4, r18	; 0x04

	if (!(Endpoint_ConfigureEndpointTable(&HIDInterfaceInfo->Config.ReportINEndpoint, 1)))
    26a8:	61 e0       	ldi	r22, 0x01	; 1
    26aa:	01 96       	adiw	r24, 0x01	; 1
    26ac:	ff c9       	rjmp	.-3074   	; 0x1aac <Endpoint_ConfigureEndpointTable>

000026ae <HID_Device_USBTask>:

	return true;
}

void HID_Device_USBTask(USB_ClassInfo_HID_Device_t* const HIDInterfaceInfo)
{
    26ae:	4f 92       	push	r4
    26b0:	5f 92       	push	r5
    26b2:	6f 92       	push	r6
    26b4:	7f 92       	push	r7
    26b6:	8f 92       	push	r8
    26b8:	9f 92       	push	r9
    26ba:	af 92       	push	r10
    26bc:	bf 92       	push	r11
    26be:	cf 92       	push	r12
    26c0:	df 92       	push	r13
    26c2:	ef 92       	push	r14
    26c4:	ff 92       	push	r15
    26c6:	0f 93       	push	r16
    26c8:	1f 93       	push	r17
    26ca:	cf 93       	push	r28
    26cc:	df 93       	push	r29
    26ce:	00 d0       	rcall	.+0      	; 0x26d0 <HID_Device_USBTask+0x22>
    26d0:	1f 92       	push	r1
    26d2:	cd b7       	in	r28, 0x3d	; 61
    26d4:	de b7       	in	r29, 0x3e	; 62
    26d6:	7c 01       	movw	r14, r24
			Endpoint_ClearIN();
		}

		HIDInterfaceInfo->State.PrevFrameNum = USB_Device_GetFrameNumber();
	}
}
    26d8:	ad b6       	in	r10, 0x3d	; 61
    26da:	be b6       	in	r11, 0x3e	; 62
	return true;
}

void HID_Device_USBTask(USB_ClassInfo_HID_Device_t* const HIDInterfaceInfo)
{
	if (USB_DeviceState != DEVICE_STATE_Configured)
    26dc:	80 91 f3 01 	lds	r24, 0x01F3
    26e0:	84 30       	cpi	r24, 0x04	; 4
    26e2:	09 f0       	breq	.+2      	; 0x26e6 <HID_Device_USBTask+0x38>
    26e4:	8f c0       	rjmp	.+286    	; 0x2804 <HID_Device_USBTask+0x156>
			 *  \return Current USB frame number from the USB controller.
			 */
			static inline uint16_t USB_Device_GetFrameNumber(void) ATTR_ALWAYS_INLINE ATTR_WARN_UNUSED_RESULT;
			static inline uint16_t USB_Device_GetFrameNumber(void)
			{
				return UDFNUM;
    26e6:	80 91 e4 00 	lds	r24, 0x00E4
    26ea:	90 91 e5 00 	lds	r25, 0x00E5
	  return;

	if (HIDInterfaceInfo->State.PrevFrameNum == USB_Device_GetFrameNumber())
    26ee:	f7 01       	movw	r30, r14
    26f0:	22 85       	ldd	r18, Z+10	; 0x0a
    26f2:	33 85       	ldd	r19, Z+11	; 0x0b
    26f4:	28 17       	cp	r18, r24
    26f6:	39 07       	cpc	r19, r25
    26f8:	09 f4       	brne	.+2      	; 0x26fc <HID_Device_USBTask+0x4e>
    26fa:	84 c0       	rjmp	.+264    	; 0x2804 <HID_Device_USBTask+0x156>
			 */
			static inline void Endpoint_SelectEndpoint(const uint8_t Address) ATTR_ALWAYS_INLINE;
			static inline void Endpoint_SelectEndpoint(const uint8_t Address)
			{
				#if !defined(CONTROL_ONLY_DEVICE)
					UENUM = (Address & ENDPOINT_EPNUM_MASK);
    26fc:	81 81       	ldd	r24, Z+1	; 0x01
    26fe:	8f 70       	andi	r24, 0x0F	; 15
    2700:	80 93 e9 00 	sts	0x00E9, r24
			 *          on its direction.
			 */
			static inline bool Endpoint_IsReadWriteAllowed(void) ATTR_WARN_UNUSED_RESULT ATTR_ALWAYS_INLINE;
			static inline bool Endpoint_IsReadWriteAllowed(void)
			{
				return ((UEINTX & (1 << RWAL)) ? true : false);
    2704:	80 91 e8 00 	lds	r24, 0x00E8
		#endif
	}

	Endpoint_SelectEndpoint(HIDInterfaceInfo->Config.ReportINEndpoint.Address);

	if (Endpoint_IsReadWriteAllowed())
    2708:	85 ff       	sbrs	r24, 5
    270a:	7c c0       	rjmp	.+248    	; 0x2804 <HID_Device_USBTask+0x156>
    270c:	6d b6       	in	r6, 0x3d	; 61
    270e:	7e b6       	in	r7, 0x3e	; 62
	{
		uint8_t  ReportINData[HIDInterfaceInfo->Config.PrevReportINBufferSize];
    2710:	40 85       	ldd	r20, Z+8	; 0x08
    2712:	8d b7       	in	r24, 0x3d	; 61
    2714:	9e b7       	in	r25, 0x3e	; 62
    2716:	84 1b       	sub	r24, r20
    2718:	91 09       	sbc	r25, r1
    271a:	0f b6       	in	r0, 0x3f	; 63
    271c:	f8 94       	cli
    271e:	9e bf       	out	0x3e, r25	; 62
    2720:	0f be       	out	0x3f, r0	; 63
    2722:	8d bf       	out	0x3d, r24	; 61
    2724:	cd b6       	in	r12, 0x3d	; 61
    2726:	de b6       	in	r13, 0x3e	; 62
    2728:	ef ef       	ldi	r30, 0xFF	; 255
    272a:	ce 1a       	sub	r12, r30
    272c:	de 0a       	sbc	r13, r30
		uint8_t  ReportID     = 0;
    272e:	1b 82       	std	Y+3, r1	; 0x03
		uint16_t ReportINSize = 0;
    2730:	1a 82       	std	Y+2, r1	; 0x02
    2732:	19 82       	std	Y+1, r1	; 0x01

		memset(ReportINData, 0, sizeof(ReportINData));
    2734:	46 01       	movw	r8, r12
    2736:	50 e0       	ldi	r21, 0x00	; 0
    2738:	60 e0       	ldi	r22, 0x00	; 0
    273a:	70 e0       	ldi	r23, 0x00	; 0
    273c:	c6 01       	movw	r24, r12
    273e:	b3 d0       	rcall	.+358    	; 0x28a6 <memset>
    2740:	8e 01       	movw	r16, r28

		bool ForceSend         = CALLBACK_HID_Device_CreateHIDReport(HIDInterfaceInfo, &ReportID, HID_REPORT_ITEM_In,
    2742:	0f 5f       	subi	r16, 0xFF	; 255
    2744:	1f 4f       	sbci	r17, 0xFF	; 255
    2746:	96 01       	movw	r18, r12
    2748:	40 e0       	ldi	r20, 0x00	; 0
    274a:	be 01       	movw	r22, r28
    274c:	6d 5f       	subi	r22, 0xFD	; 253
    274e:	7f 4f       	sbci	r23, 0xFF	; 255
    2750:	c7 01       	movw	r24, r14
    2752:	0e 94 65 04 	call	0x8ca	; 0x8ca <CALLBACK_HID_Device_CreateHIDReport>
    2756:	58 2e       	mov	r5, r24
    2758:	f7 01       	movw	r30, r14
		                                                             ReportINData, &ReportINSize);
		bool StatesChanged     = false;
		bool IdlePeriodElapsed = (HIDInterfaceInfo->State.IdleCount && !(HIDInterfaceInfo->State.IdleMSRemaining));
    275a:	84 85       	ldd	r24, Z+12	; 0x0c
    275c:	95 85       	ldd	r25, Z+13	; 0x0d
    275e:	89 2b       	or	r24, r25
    2760:	31 f0       	breq	.+12     	; 0x276e <HID_Device_USBTask+0xc0>
    2762:	01 e0       	ldi	r16, 0x01	; 1
    2764:	10 e0       	ldi	r17, 0x00	; 0
    2766:	86 85       	ldd	r24, Z+14	; 0x0e
    2768:	97 85       	ldd	r25, Z+15	; 0x0f
    276a:	89 2b       	or	r24, r25
    276c:	11 f0       	breq	.+4      	; 0x2772 <HID_Device_USBTask+0xc4>
    276e:	00 e0       	ldi	r16, 0x00	; 0
    2770:	10 e0       	ldi	r17, 0x00	; 0
    2772:	f7 01       	movw	r30, r14

		if (HIDInterfaceInfo->Config.PrevReportINBuffer != NULL)
    2774:	c6 80       	ldd	r12, Z+6	; 0x06
    2776:	d7 80       	ldd	r13, Z+7	; 0x07
    2778:	c1 14       	cp	r12, r1
    277a:	d1 04       	cpc	r13, r1
    277c:	89 f0       	breq	.+34     	; 0x27a0 <HID_Device_USBTask+0xf2>
    277e:	49 81       	ldd	r20, Y+1	; 0x01
		{
			StatesChanged = (memcmp(ReportINData, HIDInterfaceInfo->Config.PrevReportINBuffer, ReportINSize) != 0);
    2780:	5a 81       	ldd	r21, Y+2	; 0x02
    2782:	b6 01       	movw	r22, r12
    2784:	c4 01       	movw	r24, r8
    2786:	79 d0       	rcall	.+242    	; 0x287a <memcmp>
    2788:	44 24       	eor	r4, r4
    278a:	43 94       	inc	r4
    278c:	00 97       	sbiw	r24, 0x00	; 0
    278e:	09 f4       	brne	.+2      	; 0x2792 <HID_Device_USBTask+0xe4>
    2790:	41 2c       	mov	r4, r1
    2792:	f7 01       	movw	r30, r14
    2794:	40 85       	ldd	r20, Z+8	; 0x08
			memcpy(HIDInterfaceInfo->Config.PrevReportINBuffer, ReportINData, HIDInterfaceInfo->Config.PrevReportINBufferSize);
    2796:	50 e0       	ldi	r21, 0x00	; 0
    2798:	b4 01       	movw	r22, r8
    279a:	c6 01       	movw	r24, r12
    279c:	7b d0       	rcall	.+246    	; 0x2894 <memcpy>
    279e:	01 c0       	rjmp	.+2      	; 0x27a2 <HID_Device_USBTask+0xf4>
    27a0:	41 2c       	mov	r4, r1
    27a2:	89 81       	ldd	r24, Y+1	; 0x01
    27a4:	9a 81       	ldd	r25, Y+2	; 0x02

		memset(ReportINData, 0, sizeof(ReportINData));

		bool ForceSend         = CALLBACK_HID_Device_CreateHIDReport(HIDInterfaceInfo, &ReportID, HID_REPORT_ITEM_In,
		                                                             ReportINData, &ReportINSize);
		bool StatesChanged     = false;
    27a6:	89 2b       	or	r24, r25
		{
			StatesChanged = (memcmp(ReportINData, HIDInterfaceInfo->Config.PrevReportINBuffer, ReportINSize) != 0);
			memcpy(HIDInterfaceInfo->Config.PrevReportINBuffer, ReportINData, HIDInterfaceInfo->Config.PrevReportINBufferSize);
		}

		if (ReportINSize && (ForceSend || StatesChanged || IdlePeriodElapsed))
    27a8:	f9 f0       	breq	.+62     	; 0x27e8 <HID_Device_USBTask+0x13a>
    27aa:	51 10       	cpse	r5, r1
    27ac:	04 c0       	rjmp	.+8      	; 0x27b6 <HID_Device_USBTask+0x108>
    27ae:	41 10       	cpse	r4, r1
    27b0:	02 c0       	rjmp	.+4      	; 0x27b6 <HID_Device_USBTask+0x108>
    27b2:	00 ff       	sbrs	r16, 0
    27b4:	19 c0       	rjmp	.+50     	; 0x27e8 <HID_Device_USBTask+0x13a>
    27b6:	f7 01       	movw	r30, r14
    27b8:	84 85       	ldd	r24, Z+12	; 0x0c
    27ba:	95 85       	ldd	r25, Z+13	; 0x0d
		{
			HIDInterfaceInfo->State.IdleMSRemaining = HIDInterfaceInfo->State.IdleCount;
    27bc:	97 87       	std	Z+15, r25	; 0x0f
    27be:	86 87       	std	Z+14, r24	; 0x0e
    27c0:	81 81       	ldd	r24, Z+1	; 0x01
    27c2:	8f 70       	andi	r24, 0x0F	; 15
    27c4:	80 93 e9 00 	sts	0x00E9, r24
			 */
			static inline void Endpoint_SelectEndpoint(const uint8_t Address) ATTR_ALWAYS_INLINE;
			static inline void Endpoint_SelectEndpoint(const uint8_t Address)
			{
				#if !defined(CONTROL_ONLY_DEVICE)
					UENUM = (Address & ENDPOINT_EPNUM_MASK);
    27c8:	8b 81       	ldd	r24, Y+3	; 0x03
    27ca:	81 11       	cpse	r24, r1
    27cc:	80 93 f1 00 	sts	0x00F1, r24

			Endpoint_SelectEndpoint(HIDInterfaceInfo->Config.ReportINEndpoint.Address);

			if (ReportID)
    27d0:	69 81       	ldd	r22, Y+1	; 0x01
			 *  \param[in] Data  Data to write into the the currently selected endpoint's FIFO buffer.
			 */
			static inline void Endpoint_Write_8(const uint8_t Data) ATTR_ALWAYS_INLINE;
			static inline void Endpoint_Write_8(const uint8_t Data)
			{
				UEDATX = Data;
    27d2:	7a 81       	ldd	r23, Y+2	; 0x02
    27d4:	40 e0       	ldi	r20, 0x00	; 0
			  Endpoint_Write_8(ReportID);

			Endpoint_Write_Stream_LE(ReportINData, ReportINSize, NULL);
    27d6:	50 e0       	ldi	r21, 0x00	; 0
    27d8:	c4 01       	movw	r24, r8
    27da:	0e 94 d1 0b 	call	0x17a2	; 0x17a2 <Endpoint_Write_Stream_LE>
    27de:	80 91 e8 00 	lds	r24, 0x00E8
    27e2:	8e 77       	andi	r24, 0x7E	; 126
			 */
			static inline void Endpoint_ClearIN(void) ATTR_ALWAYS_INLINE;
			static inline void Endpoint_ClearIN(void)
			{
				#if !defined(CONTROL_ONLY_DEVICE)
					UEINTX &= ~((1 << TXINI) | (1 << FIFOCON));
    27e4:	80 93 e8 00 	sts	0x00E8, r24
    27e8:	80 91 e4 00 	lds	r24, 0x00E4
    27ec:	90 91 e5 00 	lds	r25, 0x00E5
    27f0:	f7 01       	movw	r30, r14
    27f2:	93 87       	std	Z+11, r25	; 0x0b
    27f4:	82 87       	std	Z+10, r24	; 0x0a

			Endpoint_ClearIN();
		}

		HIDInterfaceInfo->State.PrevFrameNum = USB_Device_GetFrameNumber();
    27f6:	86 2d       	mov	r24, r6
    27f8:	97 2d       	mov	r25, r7
    27fa:	0f b6       	in	r0, 0x3f	; 63
    27fc:	f8 94       	cli
    27fe:	9e bf       	out	0x3e, r25	; 62
    2800:	0f be       	out	0x3f, r0	; 63
    2802:	8d bf       	out	0x3d, r24	; 61
    2804:	0f b6       	in	r0, 0x3f	; 63
    2806:	f8 94       	cli
    2808:	be be       	out	0x3e, r11	; 62
	}
}
    280a:	0f be       	out	0x3f, r0	; 63
    280c:	ad be       	out	0x3d, r10	; 61
    280e:	0f 90       	pop	r0
    2810:	0f 90       	pop	r0
    2812:	0f 90       	pop	r0
    2814:	df 91       	pop	r29
    2816:	cf 91       	pop	r28
    2818:	1f 91       	pop	r17
    281a:	0f 91       	pop	r16
    281c:	ff 90       	pop	r15
    281e:	ef 90       	pop	r14
    2820:	df 90       	pop	r13
    2822:	cf 90       	pop	r12
    2824:	bf 90       	pop	r11
    2826:	af 90       	pop	r10
    2828:	9f 90       	pop	r9
    282a:	8f 90       	pop	r8
    282c:	7f 90       	pop	r7
    282e:	6f 90       	pop	r6
    2830:	5f 90       	pop	r5
    2832:	4f 90       	pop	r4
    2834:	08 95       	ret

00002836 <__udivmodsi4>:
    2836:	a1 e2       	ldi	r26, 0x21	; 33
    2838:	1a 2e       	mov	r1, r26
    283a:	aa 1b       	sub	r26, r26
    283c:	bb 1b       	sub	r27, r27
    283e:	fd 01       	movw	r30, r26
    2840:	0d c0       	rjmp	.+26     	; 0x285c <__udivmodsi4_ep>

00002842 <__udivmodsi4_loop>:
    2842:	aa 1f       	adc	r26, r26
    2844:	bb 1f       	adc	r27, r27
    2846:	ee 1f       	adc	r30, r30
    2848:	ff 1f       	adc	r31, r31
    284a:	a2 17       	cp	r26, r18
    284c:	b3 07       	cpc	r27, r19
    284e:	e4 07       	cpc	r30, r20
    2850:	f5 07       	cpc	r31, r21
    2852:	20 f0       	brcs	.+8      	; 0x285c <__udivmodsi4_ep>
    2854:	a2 1b       	sub	r26, r18
    2856:	b3 0b       	sbc	r27, r19
    2858:	e4 0b       	sbc	r30, r20
    285a:	f5 0b       	sbc	r31, r21

0000285c <__udivmodsi4_ep>:
    285c:	66 1f       	adc	r22, r22
    285e:	77 1f       	adc	r23, r23
    2860:	88 1f       	adc	r24, r24
    2862:	99 1f       	adc	r25, r25
    2864:	1a 94       	dec	r1
    2866:	69 f7       	brne	.-38     	; 0x2842 <__udivmodsi4_loop>
    2868:	60 95       	com	r22
    286a:	70 95       	com	r23
    286c:	80 95       	com	r24
    286e:	90 95       	com	r25
    2870:	9b 01       	movw	r18, r22
    2872:	ac 01       	movw	r20, r24
    2874:	bd 01       	movw	r22, r26
    2876:	cf 01       	movw	r24, r30
    2878:	08 95       	ret

0000287a <memcmp>:
    287a:	fb 01       	movw	r30, r22
    287c:	dc 01       	movw	r26, r24
    287e:	04 c0       	rjmp	.+8      	; 0x2888 <memcmp+0xe>
    2880:	8d 91       	ld	r24, X+
    2882:	01 90       	ld	r0, Z+
    2884:	80 19       	sub	r24, r0
    2886:	21 f4       	brne	.+8      	; 0x2890 <memcmp+0x16>
    2888:	41 50       	subi	r20, 0x01	; 1
    288a:	50 40       	sbci	r21, 0x00	; 0
    288c:	c8 f7       	brcc	.-14     	; 0x2880 <memcmp+0x6>
    288e:	88 1b       	sub	r24, r24
    2890:	99 0b       	sbc	r25, r25
    2892:	08 95       	ret

00002894 <memcpy>:
    2894:	fb 01       	movw	r30, r22
    2896:	dc 01       	movw	r26, r24
    2898:	02 c0       	rjmp	.+4      	; 0x289e <memcpy+0xa>
    289a:	01 90       	ld	r0, Z+
    289c:	0d 92       	st	X+, r0
    289e:	41 50       	subi	r20, 0x01	; 1
    28a0:	50 40       	sbci	r21, 0x00	; 0
    28a2:	d8 f7       	brcc	.-10     	; 0x289a <memcpy+0x6>
    28a4:	08 95       	ret

000028a6 <memset>:
    28a6:	dc 01       	movw	r26, r24
    28a8:	01 c0       	rjmp	.+2      	; 0x28ac <memset+0x6>
    28aa:	6d 93       	st	X+, r22
    28ac:	41 50       	subi	r20, 0x01	; 1
    28ae:	50 40       	sbci	r21, 0x00	; 0
    28b0:	e0 f7       	brcc	.-8      	; 0x28aa <memset+0x4>
    28b2:	08 95       	ret

000028b4 <_exit>:
    28b4:	f8 94       	cli

000028b6 <__stop_program>:
    28b6:	ff cf       	rjmp	.-2      	; 0x28b6 <__stop_program>
